
bc20728a-6a28-49d8-98d8-f22e7535f138.elf:     file format elf64-littleaarch64
bc20728a-6a28-49d8-98d8-f22e7535f138.elf
architecture: aarch64, flags 0x00000150:
HAS_SYMS, DYNAMIC, D_PAGED
start address 0x00000000000008c8

Program Header:
    LOAD off    0x0000000000001000 vaddr 0x0000000000000000 paddr 0x0000000000000000 align 2**12
         filesz 0x000000000003e770 memsz 0x000000000003e770 flags r-x
    LOAD off    0x0000000000040000 vaddr 0x000000000003f000 paddr 0x000000000003f000 align 2**12
         filesz 0x0000000000001718 memsz 0x0000000000f11f88 flags rw-
 DYNAMIC off    0x0000000000040000 vaddr 0x000000000003f000 paddr 0x000000000003f000 align 2**3
         filesz 0x0000000000000160 memsz 0x0000000000000160 flags rw-
   STACK off    0x0000000000000000 vaddr 0x0000000000000000 paddr 0x0000000000000000 align 2**4
         filesz 0x0000000000000000 memsz 0x0000000000000000 flags rw-

Dynamic Section:
  NEEDED               a6799c0f-518a-4107-87be-33757c906262
  HASH                 0x000000000003bf68
  GNU_HASH             0x000000000003b5c0
  STRTAB               0x000000000003bbf0
  SYMTAB               0x000000000003b698
  STRSZ                0x0000000000000372
  SYMENT               0x0000000000000018
  DEBUG                0x0000000000000000
  PLTGOT               0x000000000003f160
  PLTRELSZ             0x00000000000002a0
  PLTREL               0x0000000000000007
  JMPREL               0x000000000003f458
  RELA                 0x000000000003c0e8
  RELASZ               0x0000000000002820
  RELAENT              0x0000000000000018
  FLAGS_1              0x0000000008000000
  RELACOUNT            0x000000000000019b
private flags = 0:

Sections:
Idx Name          Size      VMA               LMA               File off  Algn
  0 .ta_head      00000020  0000000000000000  0000000000000000  00001000  2**3
                  CONTENTS, ALLOC, LOAD, READONLY, DATA
  1 .text         0002e114  0000000000000020  0000000000000020  00001020  2**3
                  CONTENTS, ALLOC, LOAD, READONLY, CODE
  2 .plt          000001e0  000000000002e134  000000000002e134  0002f134  2**2
                  CONTENTS, ALLOC, LOAD, READONLY, CODE
  3 .eh_frame     00008aa4  000000000002e318  000000000002e318  0002f318  2**3
                  CONTENTS, ALLOC, LOAD, READONLY, DATA
  4 .rodata       000047fa  0000000000036dc0  0000000000036dc0  00037dc0  2**4
                  CONTENTS, ALLOC, LOAD, READONLY, DATA
  5 .gnu.hash     000000d8  000000000003b5c0  000000000003b5c0  0003c5c0  2**3
                  CONTENTS, ALLOC, LOAD, READONLY, DATA
  6 .dynsym       00000558  000000000003b698  000000000003b698  0003c698  2**3
                  CONTENTS, ALLOC, LOAD, READONLY, DATA
  7 .dynstr       00000372  000000000003bbf0  000000000003bbf0  0003cbf0  2**0
                  CONTENTS, ALLOC, LOAD, READONLY, DATA
  8 .hash         00000180  000000000003bf68  000000000003bf68  0003cf68  2**3
                  CONTENTS, ALLOC, LOAD, READONLY, DATA
  9 .rela.dyn     00002688  000000000003c0e8  000000000003c0e8  0003d0e8  2**3
                  CONTENTS, ALLOC, LOAD, READONLY, DATA
 10 .dynamic      00000160  000000000003f000  000000000003f000  00040000  2**3
                  CONTENTS, ALLOC, LOAD, DATA
 11 .got          00000160  000000000003f160  000000000003f160  00040160  2**3
                  CONTENTS, ALLOC, LOAD, DATA
 12 .rela.data    00000078  000000000003f2c0  000000000003f2c0  000402c0  2**3
                  CONTENTS, ALLOC, LOAD, READONLY, DATA
 13 .rela.got     00000120  000000000003f338  000000000003f338  00040338  2**3
                  CONTENTS, ALLOC, LOAD, READONLY, DATA
 14 .rela.plt     000002a0  000000000003f458  000000000003f458  00040458  2**3
                  CONTENTS, ALLOC, LOAD, READONLY, DATA
 15 .data         00001018  000000000003f700  000000000003f700  00040700  2**4
                  CONTENTS, ALLOC, LOAD, DATA
 16 .bss          00f10868  0000000000040720  0000000000040720  00041718  2**4
                  ALLOC
 17 .debug_info   00003691  0000000000000000  0000000000000000  00041718  2**0
                  CONTENTS, READONLY, DEBUGGING
 18 .debug_abbrev 0000120f  0000000000000000  0000000000000000  00044da9  2**0
                  CONTENTS, READONLY, DEBUGGING
 19 .debug_loc    000027eb  0000000000000000  0000000000000000  00045fb8  2**0
                  CONTENTS, READONLY, DEBUGGING
 20 .debug_aranges 00000300  0000000000000000  0000000000000000  000487a3  2**0
                  CONTENTS, READONLY, DEBUGGING
 21 .debug_ranges 00000120  0000000000000000  0000000000000000  00048aa3  2**0
                  CONTENTS, READONLY, DEBUGGING
 22 .debug_macro  0000c473  0000000000000000  0000000000000000  00048bc3  2**0
                  CONTENTS, READONLY, DEBUGGING
 23 .debug_line   00002645  0000000000000000  0000000000000000  00055036  2**0
                  CONTENTS, READONLY, DEBUGGING
 24 .debug_str    0000df35  0000000000000000  0000000000000000  0005767b  2**0
                  CONTENTS, READONLY, DEBUGGING
 25 .comment      0000005a  0000000000000000  0000000000000000  000655b0  2**0
                  CONTENTS, READONLY
SYMBOL TABLE:
0000000000000000 l    d  .ta_head	0000000000000000 .ta_head
0000000000000020 l    d  .text	0000000000000000 .text
000000000002e134 l    d  .plt	0000000000000000 .plt
000000000002e318 l    d  .eh_frame	0000000000000000 .eh_frame
0000000000036dc0 l    d  .rodata	0000000000000000 .rodata
000000000003b5c0 l    d  .gnu.hash	0000000000000000 .gnu.hash
000000000003b698 l    d  .dynsym	0000000000000000 .dynsym
000000000003bbf0 l    d  .dynstr	0000000000000000 .dynstr
000000000003bf68 l    d  .hash	0000000000000000 .hash
000000000003c0e8 l    d  .rela.dyn	0000000000000000 .rela.dyn
000000000003f000 l    d  .dynamic	0000000000000000 .dynamic
000000000003f160 l    d  .got	0000000000000000 .got
000000000003f2c0 l    d  .rela.data	0000000000000000 .rela.data
000000000003f338 l    d  .rela.got	0000000000000000 .rela.got
000000000003f458 l    d  .rela.plt	0000000000000000 .rela.plt
000000000003f700 l    d  .data	0000000000000000 .data
0000000000040720 l    d  .bss	0000000000000000 .bss
0000000000000000 l    d  .debug_info	0000000000000000 .debug_info
0000000000000000 l    d  .debug_abbrev	0000000000000000 .debug_abbrev
0000000000000000 l    d  .debug_loc	0000000000000000 .debug_loc
0000000000000000 l    d  .debug_aranges	0000000000000000 .debug_aranges
0000000000000000 l    d  .debug_ranges	0000000000000000 .debug_ranges
0000000000000000 l    d  .debug_macro	0000000000000000 .debug_macro
0000000000000000 l    d  .debug_line	0000000000000000 .debug_line
0000000000000000 l    d  .debug_str	0000000000000000 .debug_str
0000000000000000 l    d  .comment	0000000000000000 .comment
0000000000000000 l    df *ABS*	0000000000000000 user_ta_header.c
00000000000375b8 l     O .rodata	0000000000000004 __compound_literal.7
00000000000375bc l     O .rodata	0000000000000001 __compound_literal.6
00000000000375c0 l     O .rodata	0000000000000004 __compound_literal.5
00000000000375c4 l     O .rodata	0000000000000004 __compound_literal.4
00000000000375c8 l     O .rodata	0000000000000004 __compound_literal.3
00000000000375cc l     O .rodata	0000000000000001 __compound_literal.2
00000000000375cd l     O .rodata	0000000000000001 __compound_literal.1
00000000000375ce l     O .rodata	0000000000000001 __compound_literal.0
0000000000000000 l    df *ABS*	0000000000000000 native_lib.c
0000000000037158 l     O .rodata	0000000000000010 __func__.4912
0000000000000000 l    df *ABS*	0000000000000000 tee_benchmarks.c
0000000000050d20 l     O .bss	0000000000000138 benchmark_storage
0000000000000000 l    df *ABS*	0000000000000000 wasm.c
00000000000372b0 l     O .rodata	0000000000000019 __func__.4929
00000000000372d0 l     O .rodata	0000000000000016 __func__.4938
0000000000000000 l    df *ABS*	0000000000000000 main.c
00000000000373c0 l     O .rodata	0000000000000014 __func__.4901
00000000000373d8 l     O .rodata	0000000000000015 __func__.4905
00000000000373f0 l     O .rodata	0000000000000019 __func__.4912
0000000000037410 l     O .rodata	000000000000001a __func__.4916
0000000000037430 l     O .rodata	000000000000000b __func__.4930
0000000000037440 l     O .rodata	000000000000000f __func__.4920
0000000000f50f68 l     O .bss	0000000000000004 heap_size
0000000000000000 l    df *ABS*	0000000000000000 tz_file.c
0000000000f50ef8 l     O .bss	0000000000000008 output_buffer
0000000000f50f00 l     O .bss	0000000000000008 output_buffer_size
00000000000379f8 l     O .rodata	0000000000000006 __func__.6391
0000000000037a00 l     O .rodata	0000000000000009 __func__.6395
0000000000037a10 l     O .rodata	0000000000000006 __func__.6400
0000000000037a18 l     O .rodata	000000000000000a __func__.6404
0000000000037a28 l     O .rodata	000000000000000a __func__.6408
0000000000037a38 l     O .rodata	0000000000000006 __func__.6413
0000000000037a40 l     O .rodata	0000000000000008 __func__.6420
0000000000037a48 l     O .rodata	0000000000000006 __func__.6424
0000000000037a50 l     O .rodata	000000000000000a __func__.6429
0000000000037a60 l     O .rodata	000000000000000a __func__.6435
0000000000037a70 l     O .rodata	0000000000000006 __func__.6440
0000000000037a78 l     O .rodata	0000000000000007 __func__.6444
0000000000037a80 l     O .rodata	0000000000000007 __func__.6452
0000000000037a88 l     O .rodata	0000000000000006 __func__.6458
0000000000037a90 l     O .rodata	0000000000000008 __func__.6464
0000000000037a98 l     O .rodata	0000000000000005 __func__.6469
0000000000037aa0 l     O .rodata	0000000000000007 __func__.6475
0000000000037aa8 l     O .rodata	0000000000000005 __func__.6481
0000000000037ab0 l     O .rodata	0000000000000010 __func__.6487
0000000000037ac0 l     O .rodata	0000000000000007 __func__.6494
0000000000037ac8 l     O .rodata	0000000000000008 __func__.6501
0000000000037ad0 l     O .rodata	0000000000000008 __func__.6505
0000000000037ad8 l     O .rodata	000000000000000b __func__.6512
0000000000037ae8 l     O .rodata	0000000000000006 __func__.6518
0000000000037af0 l     O .rodata	0000000000000009 __func__.6523
0000000000037b00 l     O .rodata	0000000000000009 __func__.6530
0000000000037b10 l     O .rodata	000000000000000a __func__.6534
0000000000037b20 l     O .rodata	000000000000000c __func__.6538
0000000000037b30 l     O .rodata	0000000000000008 __func__.6543
0000000000037b38 l     O .rodata	000000000000000a __func__.6549
0000000000037b48 l     O .rodata	0000000000000008 __func__.6553
0000000000037b50 l     O .rodata	0000000000000009 __func__.6559
0000000000037b60 l     O .rodata	0000000000000007 __func__.6575
0000000000000000 l    df *ABS*	0000000000000000 tz_platform.c
0000000000040720 l     O .bss	0000000000000200 msg.6403
0000000000040920 l     O .bss	0000000000000200 msg.6410
0000000000037de0 l     O .rodata	000000000000000a __func__.6405
0000000000037df0 l     O .rodata	000000000000000b __func__.6411
0000000000037e00 l     O .rodata	0000000000000008 __func__.6430
0000000000037e08 l     O .rodata	000000000000000a __func__.6438
0000000000037e18 l     O .rodata	000000000000000c __func__.6447
0000000000037e28 l     O .rodata	0000000000000007 __func__.6456
0000000000037e30 l     O .rodata	0000000000000007 __func__.6466
0000000000037e38 l     O .rodata	0000000000000009 __func__.6472
0000000000037e48 l     O .rodata	0000000000000006 __func__.6476
0000000000000000 l    df *ABS*	0000000000000000 wasm_application.c
0000000000000000 l    df *ABS*	0000000000000000 wasm_memory.c
0000000000f50f08 l     O .bss	0000000000000008 free_func
0000000000f50f70 l     O .bss	0000000000000004 global_pool_size
0000000000f50f10 l     O .bss	0000000000000008 malloc_func
0000000000f50f74 l     O .bss	0000000000000004 memory_mode
0000000000f50f18 l     O .bss	0000000000000008 pool_allocator
0000000000f50f20 l     O .bss	0000000000000008 realloc_func
0000000000000000 l    df *ABS*	0000000000000000 wasm_runtime_common.c
0000000000000000 l    df *ABS*	0000000000000000 tz_io_sigtable.c
0000000000040b20 l     O .bss	0000000000000200 io_helper_sess
0000000000038598 l     O .rodata	0000000000000014 __func__.8230
00000000000385b0 l     O .rodata	0000000000000012 __func__.8238
0000000000000000 l    df *ABS*	0000000000000000 tz_periph_io_helper.c
0000000000000000 l    df *ABS*	0000000000000000 wasm_runtime.c
0000000000005418 l     F .text	00000000000000b8 set_error_buf_v.constprop.0
00000000000054d0 l     F .text	00000000000003ec memory_instantiate.isra.0
0000000000000000 l    df *ABS*	0000000000000000 aot_loader.c
0000000000007810 l     F .text	000000000000001c wasm_string_equal
0000000000007830 l     F .text	0000000000000044 wasm_string_hash
0000000000007878 l     F .text	00000000000000b0 set_error_buf_v
0000000000007928 l     F .text	000000000000012c const_str_set_insert.isra.0
0000000000007a58 l     F .text	00000000000015a4 load_init_data_section
0000000000009000 l     F .text	0000000000001990 load_from_sections
0000000000000000 l    df *ABS*	0000000000000000 aot_runtime.c
000000000000b1b8 l     F .text	00000000000000b8 set_error_buf_v.constprop.0
0000000000000000 l    df *ABS*	0000000000000000 aot_reloc_aarch64.c
0000000000040008 l     O .data	0000000000000140 target_sym_map
0000000000000000 l    df *ABS*	0000000000000000 tz_pthread.c
0000000000f50f78 l     O .bss	0000000000000004 global_errno
0000000000000000 l    df *ABS*	0000000000000000 math.c
0000000000039468 l     O .rodata	0000000000000008 TWO23
0000000000036df0 l     O .rodata	0000000000000010 TWO52
0000000000000000 l    df *ABS*	0000000000000000 mem_alloc.c
0000000000000000 l    df *ABS*	0000000000000000 bh_common.c
0000000000000000 l    df *ABS*	0000000000000000 bh_hashmap.c
0000000000000000 l    df *ABS*	0000000000000000 bh_log.c
0000000000f50f7c l     O .bss	0000000000000004 last_time_ms
0000000000f50f80 l     O .bss	0000000000000004 total_time_ms
0000000000040714 l     O .data	0000000000000004 log_verbose_level
0000000000000000 l    df *ABS*	0000000000000000 runtime_timer.c
0000000000010190 l     F .text	0000000000000108 reschedule_timer
0000000000000000 l    df *ABS*	0000000000000000 posix.c
0000000000010c38 l     F .text	000000000000010c readlinkat_dup
0000000000010d48 l     F .text	0000000000000104 fd_table_grow.constprop.0
0000000000010e50 l     F .text	00000000000000b0 path_put
0000000000010f00 l     F .text	0000000000000628 path_get
0000000000036e00 l     O .rodata	0000000000000108 errors.7177
0000000000036f10 l     O .rodata	000000000000007c signals.7908
0000000000000000 l    df *ABS*	0000000000000000 random.c
0000000000000000 l    df *ABS*	0000000000000000 str.c
0000000000000000 l    df *ABS*	0000000000000000 wasm_c_api.c
0000000000016328 l     F .text	0000000000000118 wasm_tabletype_new_internal
0000000000016440 l     F .text	0000000000000148 wasm_table_new_internal.isra.0
0000000000016588 l     F .text	000000000000014c wasm_memory_new_internal.isra.0
00000000000166d8 l     F .text	0000000000000108 wasm_trap_new_internal
0000000000017708 l     F .text	00000000000003fc wasm_functype_new_internal
0000000000017e20 l     F .text	000000000000010c wasm_importtype_vec_delete.part.0
0000000000018600 l     F .text	00000000000002b0 wasm_global_new_internal.isra.0.part.0
000000000001c2f8 l     F .text	00000000000002c0 wasm_instance_vec_delete.part.0
000000000001c6f8 l     F .text	0000000000000140 wasm_store_delete.part.0
000000000001cac8 l     F .text	00000000000001dc wasm_engine_new_internal
0000000000f50f48 l     O .bss	0000000000000008 singleton_engine
0000000000039898 l     O .rodata	0000000000000016 __FUNCTION__.10017
00000000000398b0 l     O .rodata	0000000000000015 __FUNCTION__.10211
00000000000398c8 l     O .rodata	0000000000000017 __FUNCTION__.10221
00000000000398e0 l     O .rodata	0000000000000010 __FUNCTION__.10324
00000000000398f0 l     O .rodata	0000000000000014 __FUNCTION__.10405
0000000000039908 l     O .rodata	0000000000000010 __FUNCTION__.10494
0000000000039918 l     O .rodata	000000000000000c __FUNCTION__.10742
0000000000039928 l     O .rodata	0000000000000016 __FUNCTION__.10767
0000000000039940 l     O .rodata	0000000000000013 __FUNCTION__.10834
0000000000039958 l     O .rodata	0000000000000011 __FUNCTION__.10884
0000000000039970 l     O .rodata	0000000000000013 __FUNCTION__.10895
0000000000039988 l     O .rodata	0000000000000011 __FUNCTION__.10907
00000000000399a0 l     O .rodata	0000000000000010 __FUNCTION__.9664
00000000000399b0 l     O .rodata	0000000000000011 __FUNCTION__.9668
00000000000399c8 l     O .rodata	0000000000000013 __FUNCTION__.9672
0000000000000000 l    df *ABS*	0000000000000000 wasm_exec_env.c
0000000000000000 l    df *ABS*	0000000000000000 wasm_native.c
000000000001e560 l     F .text	00000000000001a4 quick_sort_symbols
0000000000f50f50 l     O .bss	0000000000000008 g_native_symbols_list
0000000000000000 l    df *ABS*	0000000000000000 wasm_interp_classic.c
000000000001ec68 l     F .text	0000000000000198 wasm_interp_call_func_native
000000000001ee00 l     F .text	0000000000003a84 wasm_interp_call_func_bytecode
000000000003f700 l     O .data	0000000000000800 handle_table.8972
0000000000000000 l    df *ABS*	0000000000000000 wasm_loader.c
0000000000022b90 l     F .text	0000000000000184 check_utf8_str
0000000000022d18 l     F .text	00000000000000b0 set_error_buf_v
0000000000022dc8 l     F .text	00000000000001a8 read_leb.constprop.0
0000000000022f70 l     F .text	00000000000001e4 read_leb
0000000000023158 l     F .text	0000000000000198 wasm_loader_push_frame_csp
00000000000232f0 l     F .text	0000000000000224 wasm_loader_pop_frame_ref
0000000000023518 l     F .text	0000000000000190 const_str_list_insert.isra.0
00000000000236a8 l     F .text	00000000000002dc load_init_expr
0000000000023988 l     F .text	0000000000000228 wasm_loader_push_frame_ref
0000000000023bb0 l     F .text	00000000000003cc check_branch_block
0000000000023f80 l     F .text	0000000000000238 wasm_loader_push_pop_frame_ref.constprop.1
00000000000241b8 l     F .text	0000000000000314 wasm_loader_push_pop_frame_ref.constprop.0
00000000000244d0 l     F .text	00000000000004b8 check_block_stack
0000000000024988 l     F .text	000000000000053c load_type_section.isra.0
0000000000024ec8 l     F .text	0000000000000d34 load_import_section
0000000000025c00 l     F .text	0000000000000830 load_function_section
0000000000026430 l     F .text	0000000000003220 load_from_sections
0000000000000000 l    df *ABS*	0000000000000000 tz_signal.c
000000000003a538 l     O .rodata	0000000000000006 __func__.6389
0000000000000000 l    df *ABS*	0000000000000000 tz_socket.c
000000000003a5e0 l     O .rodata	0000000000000007 __func__.6391
000000000003a5e8 l     O .rodata	000000000000000b __func__.6399
000000000003a5f8 l     O .rodata	0000000000000008 __func__.6405
000000000003a600 l     O .rodata	0000000000000008 __func__.6411
000000000003a608 l     O .rodata	0000000000000009 __func__.6416
0000000000000000 l    df *ABS*	0000000000000000 tz_string.c
000000000003a678 l     O .rodata	0000000000000008 __func__.6390
000000000003a680 l     O .rodata	0000000000000009 __func__.6394
000000000003a690 l     O .rodata	0000000000000007 __func__.6399
0000000000000000 l    df *ABS*	0000000000000000 tz_thread.c
0000000000000000 l    df *ABS*	0000000000000000 tz_time.c
000000000003a770 l     O .rodata	000000000000000d __func__.6396
000000000003a780 l     O .rodata	000000000000000e __func__.6402
000000000003a790 l     O .rodata	0000000000000010 __func__.6409
000000000003a7a0 l     O .rodata	0000000000000009 __func__.6414
000000000003a7b0 l     O .rodata	000000000000000a __func__.6421
0000000000000000 l    df *ABS*	0000000000000000 ems_alloc.c
000000000002a510 l     F .text	00000000000001c4 remove_tree_node
000000000002a6d8 l     F .text	00000000000000d8 unlink_hmu
000000000002a8a0 l     F .text	0000000000000270 alloc_hmu
0000000000f50f58 l     O .bss	0000000000000008 g_total_free
0000000000f50f60 l     O .bss	0000000000000008 g_total_malloc
0000000000000000 l    df *ABS*	0000000000000000 ems_kfc.c
0000000000000000 l    df *ABS*	0000000000000000 bh_vector.c
0000000000000000 l    df *ABS*	0000000000000000 libc_wasi_wrapper.c
000000000002bce8 l     F .text	0000000000000004 wasi_sched_yield
000000000002bcf0 l     F .text	0000000000000048 wasi_sock_shutdown
000000000002bd38 l     F .text	0000000000000180 wasi_sock_send
000000000002beb8 l     F .text	00000000000001a4 wasi_sock_recv
000000000002c060 l     F .text	000000000000000c wasi_random_get
000000000002c070 l     F .text	0000000000000058 wasi_proc_raise
000000000002c0c8 l     F .text	000000000000001c wasi_proc_exit
000000000002c0e8 l     F .text	00000000000000d8 wasi_poll_oneoff
000000000002c1c0 l     F .text	000000000000005c wasi_path_remove_directory
000000000002c220 l     F .text	000000000000005c wasi_path_unlink_file
000000000002c280 l     F .text	0000000000000078 wasi_path_symlink
000000000002c2f8 l     F .text	0000000000000094 wasi_path_filestat_set_times
000000000002c390 l     F .text	000000000000009c wasi_path_filestat_get
000000000002c430 l     F .text	0000000000000048 wasi_fd_filestat_set_size
000000000002c478 l     F .text	0000000000000064 wasi_fd_filestat_set_times
000000000002c4e0 l     F .text	0000000000000078 wasi_fd_filestat_get
000000000002c558 l     F .text	0000000000000080 wasi_path_rename
000000000002c5d8 l     F .text	00000000000000c4 wasi_path_readlink
000000000002c6a0 l     F .text	00000000000000b0 wasi_fd_readdir
000000000002c750 l     F .text	00000000000000fc wasi_path_open
000000000002c850 l     F .text	0000000000000090 wasi_path_link
000000000002c8e0 l     F .text	000000000000005c wasi_path_create_directory
000000000002c940 l     F .text	000000000000005c wasi_fd_allocate
000000000002c9a0 l     F .text	0000000000000064 wasi_fd_advise
000000000002ca08 l     F .text	0000000000000178 wasi_fd_write
000000000002cb80 l     F .text	0000000000000040 wasi_fd_sync
000000000002cbc0 l     F .text	000000000000005c wasi_fd_fdstat_set_rights
000000000002cc20 l     F .text	0000000000000048 wasi_fd_fdstat_set_flags
000000000002cc68 l     F .text	00000000000000a4 wasi_fd_fdstat_get
000000000002cd10 l     F .text	0000000000000078 wasi_fd_tell
000000000002cd88 l     F .text	0000000000000094 wasi_fd_seek
000000000002ce20 l     F .text	0000000000000048 wasi_fd_renumber
000000000002ce68 l     F .text	0000000000000178 wasi_fd_read
000000000002cfe0 l     F .text	0000000000000180 wasi_fd_pwrite
000000000002d160 l     F .text	0000000000000180 wasi_fd_pread
000000000002d2e0 l     F .text	0000000000000040 wasi_fd_datasync
000000000002d320 l     F .text	0000000000000040 wasi_fd_close
000000000002d360 l     F .text	000000000000005c wasi_fd_prestat_dir_name
000000000002d3c0 l     F .text	0000000000000094 wasi_fd_prestat_get
000000000002d458 l     F .text	00000000000000ac wasi_environ_sizes_get
000000000002d508 l     F .text	0000000000000144 wasi_environ_get
000000000002d650 l     F .text	0000000000000064 wasi_clock_time_get
000000000002d6b8 l     F .text	0000000000000050 wasi_clock_res_get
000000000002d708 l     F .text	00000000000000a8 wasi_args_sizes_get
000000000002d7b0 l     F .text	0000000000000144 wasi_args_get
0000000000040170 l     O .data	00000000000005a0 native_symbols_libc_wasi
0000000000000000 l    df *ABS*	0000000000000000 dlfcn.c
000000000002d910 l     F .text	00000000000000c8 invoke_system_pta.constprop.0
0000000000f50ee8 l     O .bss	0000000000000008 sess
0000000000f50ef0 l     O .bss	0000000000000008 hcount
0000000000000000 l    df *ABS*	0000000000000000 tee_uuid_from_str.c
000000000002dbd8 l     F .text	000000000000008c parse_hex
0000000000000000 l    df *ABS*	0000000000000000 invokeNative_aarch64.s.o
000000000002de60 l       .text	0000000000000000 call_func
000000000002de48 l       .text	0000000000000000 loop_stack_args
000000000002de6c l       .text	0000000000000000 return
0000000000000000 l    df *ABS*	0000000000000000 isxdigit.c
0000000000000000 l    df *ABS*	0000000000000000 tolower.c
0000000000000000 l    df *ABS*	0000000000000000 memcmp.c
0000000000000000 l    df *ABS*	0000000000000000 strncmp.c
0000000000000000 l    df *ABS*	0000000000000000 strnlen.c
0000000000000000 l    df *ABS*	0000000000000000 strtoul.c
0000000000000000 l    df *ABS*	0000000000000000 isalpha.c
0000000000000000 l    df *ABS*	0000000000000000 isspace.c
0000000000000000 l    df *ABS*	0000000000000000 isupper.c
0000000000000000 l    df *ABS*	0000000000000000 
000000000002a400 l     F .text	0000000000000064 clock_gettime
0000000000015fa0 l     F .text	0000000000000020 argv_environ_init
0000000000004c30 l     F .text	000000000000036c wasm_runtime_invoke_c_api_native
000000000002b440 l     F .text	0000000000000048 gc_destroy_with_pool
000000000002a398 l     F .text	0000000000000008 os_thread_get_stack_boundary
0000000000004fe8 l     F .text	00000000000001bc get_ready_signal
000000000000e000 l     F .text	0000000000000018 get_target_symbol_map
000000000000e808 l     F .text	0000000000000218 sqrt
0000000000019dd0 l     F .text	0000000000000040 wasm_trap_delete
00000000000131c8 l     F .text	00000000000000d8 wasmtime_ssp_path_create_directory
0000000000000b40 l     F .text	0000000000000034 ioctl
0000000000000fe0 l     F .text	00000000000001cc writev
00000000000075a0 l     F .text	00000000000000e8 wasm_get_indirect_function
0000000000000a60 l     F .text	0000000000000034 fstatat
000000000000da18 l     F .text	00000000000005d8 aot_call_indirect
000000000002a380 l     F .text	0000000000000008 os_mutex_lock
0000000000001600 l     F .text	0000000000000004 os_dcache_flush
0000000000000d70 l     F .text	0000000000000034 pwritev
00000000000009d8 l     F .text	0000000000000034 fdopendir
0000000000001350 l     F .text	000000000000008c os_munmap
0000000000007370 l     F .text	0000000000000030 wasm_addr_app_to_native
000000000000b380 l     F .text	0000000000000088 aot_lookup_function
000000000000b2c0 l     F .text	00000000000000bc aot_deinstantiate
000000000000e7f0 l     F .text	0000000000000008 pthread_rwlock_rdlock
000000000002a2f0 l     F .text	0000000000000034 strerror
000000000000d198 l     F .text	00000000000001ac aot_module_free
000000000000d458 l     F .text	0000000000000068 aot_validate_native_addr
000000000001e528 l     F .text	0000000000000008 wasm_exec_env_get_module_inst
00000000000150f8 l     F .text	00000000000000d8 wasmtime_ssp_path_remove_directory
000000000000e7e8 l     F .text	0000000000000008 pthread_rwlock_init
0000000000004be8 l     F .text	0000000000000044 wasm_runtime_get_memory_data_size
00000000000013e0 l     F .text	00000000000000dc os_mprotect
0000000000005a80 l     F .text	00000000000000e0 wasm_call_function
0000000000011808 l     F .text	0000000000000044 fd_table_init
000000000002b490 l     F .text	0000000000000124 gc_migrate
000000000003f000 l     O *ABS*	0000000000000000 _DYNAMIC
000000000000cca8 l     F .text	0000000000000010 aot_get_exception
0000000000005200 l     F .text	0000000000000024 temp_unset_all_io_signal_pending
000000000002b7d0 l     F .text	00000000000000b0 bh_vector_get
0000000000019538 l     F .text	0000000000000268 wasm_importtype_copy
0000000000004810 l     F .text	0000000000000064 wasm_runtime_read_v128
0000000000029d08 l     F .text	000000000000045c wasm_loader_find_block_addr
0000000000015fc0 l     F .text	0000000000000004 argv_environ_destroy
0000000000016d48 l     F .text	000000000000010c wasm_valtype_vec_copy
0000000000018a70 l     F .text	00000000000000a8 wasm_tabletype_copy
0000000000018510 l     F .text	00000000000000f0 wasm_globaltype_new_internal
000000000002ac28 l     F .text	00000000000001cc gc_free_vo
000000000002a4d8 l     F .text	0000000000000034 utimensat
0000000000013608 l     F .text	0000000000000808 wasmtime_ssp_path_open
0000000000004ab8 l     F .text	00000000000000ec wasm_runtime_get_export_table_type
000000000001e708 l     F .text	0000000000000344 wasm_native_resolve_symbol
000000000000e018 l     F .text	00000000000002c4 get_current_target
00000000000016b8 l     F .text	0000000000000034 sqrtf
000000000000fd58 l     F .text	00000000000000f0 bh_hash_map_destroy
0000000000013e10 l     F .text	0000000000000498 wasmtime_ssp_fd_readdir
0000000000015f80 l     F .text	000000000000001c wasmtime_ssp_environ_sizes_get
000000000002bb90 l     F .text	00000000000000e8 bh_vector_remove
00000000000021e8 l     F .text	0000000000000190 wasm_runtime_memory_init
0000000000000f18 l     F .text	0000000000000020 seekdir
0000000000000e88 l     F .text	0000000000000034 renameat
000000000000ca30 l     F .text	0000000000000024 aot_set_exception
000000000002a388 l     F .text	0000000000000008 os_mutex_unlock
0000000000006d70 l     F .text	0000000000000010 wasm_get_exception
00000000000070a8 l     F .text	00000000000001fc wasm_module_dup_data
000000000000f528 l     F .text	0000000000000080 b_strcat_s
0000000000000ec0 l     F .text	0000000000000020 rewinddir
0000000000018ec0 l     F .text	00000000000000f4 wasm_exporttype_vec_new
00000000000012c8 l     F .text	0000000000000068 os_vprintf
000000000002a3a0 l     F .text	0000000000000028 os_time_get_boot_microsecond
00000000000058d0 l     F .text	0000000000000004 wasm_unload
000000000000e7e0 l     F .text	0000000000000008 pthread_rwlock_destroy
0000000000019458 l     F .text	00000000000000e0 wasm_importtype_delete
00000000000011f0 l     F .text	000000000000000c os_malloc
0000000000004330 l     F .text	0000000000000434 wasm_runtime_invoke_native
000000000002a3c8 l     F .text	0000000000000034 clock_getres
00000000000049f8 l     F .text	00000000000000bc wasm_runtime_get_export_memory_type
000000000000e7f8 l     F .text	0000000000000008 pthread_rwlock_unlock
00000000000073d8 l     F .text	0000000000000040 wasm_get_app_addr_range
0000000000012628 l     F .text	00000000000001b0 wasmtime_ssp_fd_seek
0000000000007418 l     F .text	000000000000004c wasm_get_native_addr_range
0000000000000da8 l     F .text	0000000000000034 readdir
000000000001eb58 l     F .text	00000000000000d4 wasm_native_init
000000000001d088 l     F .text	0000000000000204 wasm_extern_vec_copy
000000000000c990 l     F .text	00000000000000a0 aot_create_exec_env_and_call_function
0000000000012100 l     F .text	0000000000000178 wasmtime_ssp_fd_pwrite
00000000000142a8 l     F .text	00000000000000f8 wasmtime_ssp_path_readlink
0000000000000ad0 l     F .text	0000000000000034 ftruncate
0000000000000e50 l     F .text	0000000000000034 realpath
0000000000000be8 l     F .text	0000000000000034 lseek
000000000000f428 l     F .text	0000000000000004 mem_allocator_malloc
0000000000029650 l     F .text	00000000000001c8 wasm_loader_unload
0000000000004878 l     F .text	00000000000000b4 wasm_runtime_get_export_func_type
000000000000d4f8 l     F .text	000000000000003c aot_addr_native_to_app
0000000000006d10 l     F .text	0000000000000034 wasm_create_exec_env_singleton
0000000000013068 l     F .text	000000000000015c wasmtime_ssp_fd_allocate
000000000000acf0 l     F .text	00000000000004bc aot_load_from_aot_file
000000000000abc0 l     F .text	000000000000012c aot_load_from_sections
0000000000007010 l     F .text	0000000000000094 wasm_module_free
000000000000a990 l     F .text	000000000000022c aot_unload
0000000000001208 l     F .text	0000000000000004 os_free
000000000001e500 l     F .text	0000000000000028 wasm_exec_env_destroy
0000000000011f88 l     F .text	0000000000000178 wasmtime_ssp_fd_pread
000000000002b5b8 l     F .text	0000000000000008 gc_is_heap_corrupted
0000000000015fc8 l     F .text	00000000000000dc fd_table_destroy
0000000000001640 l     F .text	0000000000000004 strtol
0000000000003f60 l     F .text	000000000000002c wasm_runtime_get_wasi_ctx
0000000000005c88 l     F .text	0000000000001088 wasm_instantiate
0000000000004ba8 l     F .text	000000000000003c wasm_runtime_get_memory_data
000000000000b408 l     F .text	0000000000000460 aot_call_function
0000000000012d08 l     F .text	0000000000000144 wasmtime_ssp_fd_sync
0000000000004930 l     F .text	00000000000000c4 wasm_runtime_get_export_global_type
000000000001ea50 l     F .text	0000000000000080 wasm_native_register_natives
0000000000001648 l     F .text	0000000000000034 strtod
0000000000012fd8 l     F .text	0000000000000090 wasmtime_ssp_fd_advise
00000000000161b0 l     F .text	00000000000000b8 random_uniform
00000000000036f0 l     F .text	000000000000064c wasm_runtime_init_wasi
00000000000014c0 l     F .text	000000000000013c os_mmap
0000000000011d10 l     F .text	0000000000000130 wasmtime_ssp_fd_close
000000000002ba48 l     F .text	0000000000000148 bh_vector_append
0000000000022888 l     F .text	0000000000000308 wasm_interp_call_wasm
000000000002a360 l     F .text	0000000000000008 os_cond_destroy
0000000000002b30 l     F .text	0000000000000020 wasm_runtime_create_exec_env_singleton
0000000000000a10 l     F .text	0000000000000050 fstat
00000000000009a0 l     F .text	0000000000000034 fdatasync
000000000002a7b0 l     F .text	00000000000000ec gci_add_fc
00000000000073a0 l     F .text	0000000000000034 wasm_addr_native_to_app
00000000000127d8 l     F .text	0000000000000168 wasmtime_ssp_fd_tell
000000000000ff58 l     F .text	00000000000001ac bh_log
000000000000ff48 l     F .text	000000000000000c bh_log_set_verbose_level
000000000002a378 l     F .text	0000000000000008 os_mutex_init
0000000000000fa8 l     F .text	0000000000000034 unlinkat
0000000000000e18 l     F .text	0000000000000034 readv
00000000000011e8 l     F .text	0000000000000004 bh_platform_destroy
000000000000d0b0 l     F .text	00000000000000e8 aot_module_realloc
000000000000f420 l     F .text	0000000000000004 mem_allocator_get_heap_struct_size
0000000000016128 l     F .text	0000000000000084 random_buf
0000000000015868 l     F .text	00000000000001c4 wasmtime_ssp_sock_recv
000000000002d8f8 l     F .text	0000000000000018 get_libc_wasi_export_apis
0000000000000d38 l     F .text	0000000000000034 preadv
000000000000f5a8 l     F .text	0000000000000070 b_strcpy_s
0000000000018d78 l     F .text	0000000000000098 wasm_externtype_delete
0000000000014710 l     F .text	0000000000000160 wasmtime_ssp_fd_filestat_set_size
00000000000132a0 l     F .text	0000000000000368 wasmtime_ssp_path_link
0000000000002ab0 l     F .text	000000000000007c wasm_runtime_create_exec_env_and_call_wasm
0000000000007310 l     F .text	0000000000000060 wasm_validate_native_addr
0000000000010298 l     F .text	0000000000000030 bh_get_tick_ms
000000000000d580 l     F .text	0000000000000054 aot_get_native_addr_range
0000000000005b60 l     F .text	0000000000000128 wasm_create_exec_env_and_call_function
00000000000058c8 l     F .text	0000000000000004 wasm_load_from_sections
000000000002a210 l     F .text	0000000000000034 sendmsg
0000000000012400 l     F .text	0000000000000224 wasmtime_ssp_fd_renumber
0000000000014a88 l     F .text	0000000000000234 wasmtime_ssp_path_filestat_get
000000000000e800 l     F .text	0000000000000008 pthread_rwlock_wrlock
0000000000012278 l     F .text	0000000000000184 wasmtime_ssp_fd_read
0000000000006d80 l     F .text	00000000000001a4 wasm_module_malloc
0000000000002378 l     F .text	0000000000000048 wasm_runtime_memory_destroy
0000000000015e88 l     F .text	00000000000000f4 wasmtime_ssp_environ_get
000000000002ab10 l     F .text	00000000000000f4 gc_alloc_vo
000000000002b1d0 l     F .text	000000000000010c gc_init_with_pool
0000000000003ea8 l     F .text	00000000000000b4 wasm_runtime_destroy_wasi
000000000000f9e0 l     F .text	00000000000000e4 bh_hash_map_find
0000000000000d00 l     F .text	0000000000000034 posix_fallocate
0000000000006f28 l     F .text	00000000000000e8 wasm_module_realloc
000000000000f448 l     F .text	0000000000000004 mem_allocator_migrate
000000000000e330 l     F .text	0000000000000454 apply_relocation
0000000000012a70 l     F .text	00000000000001e4 wasmtime_ssp_fd_fdstat_set_flags
0000000000015bb0 l     F .text	0000000000000170 wasmtime_ssp_sock_shutdown
0000000000000c20 l     F .text	0000000000000034 mkdirat
0000000000017468 l     F .text	00000000000000f0 wasm_functype_delete
0000000000001680 l     F .text	0000000000000034 strtoull
000000000000d4c0 l     F .text	0000000000000038 aot_addr_app_to_native
0000000000007468 l     F .text	0000000000000134 wasm_enlarge_memory
000000000001ec30 l     F .text	0000000000000038 wasm_native_destroy
0000000000000bb0 l     F .text	0000000000000034 linkat
0000000000014870 l     F .text	0000000000000214 wasmtime_ssp_fd_filestat_set_times
000000000001e3e8 l     F .text	0000000000000118 wasm_exec_env_create
0000000000000cc8 l     F .text	0000000000000034 poll
000000000002b2e0 l     F .text	000000000000015c gc_init_with_struct_and_pool
000000000000f450 l     F .text	0000000000000004 mem_allocator_is_heap_corrupted
000000000001ead0 l     F .text	0000000000000084 wasm_native_register_natives_raw
00000000000011e0 l     F .text	0000000000000008 bh_platform_init
000000000002bc78 l     F .text	0000000000000014 bh_vector_size
000000000000b288 l     F .text	0000000000000034 aot_create_exec_env_singleton
0000000000015850 l     F .text	0000000000000018 wasmtime_ssp_random_get
000000000000b868 l     F .text	0000000000001124 aot_instantiate
000000000002a280 l     F .text	0000000000000034 shutdown
000000000000e7d8 l     F .text	0000000000000008 pthread_mutex_unlock
000000000002a368 l     F .text	0000000000000008 os_cond_init
0000000000015d20 l     F .text	0000000000000058 wasmtime_ssp_sched_yield
0000000000011e40 l     F .text	0000000000000144 wasmtime_ssp_fd_datasync
0000000000014cc0 l     F .text	00000000000001c4 wasmtime_ssp_path_filestat_set_times
00000000000188e8 l     F .text	000000000000009c wasm_globaltype_copy
0000000000011688 l     F .text	0000000000000044 fd_prestats_init
000000000002a4a0 l     F .text	0000000000000034 futimens
000000000000cd88 l     F .text	0000000000000324 aot_module_malloc
00000000000151d0 l     F .text	00000000000005f8 wasmtime_ssp_poll_oneoff
0000000000017b80 l     F .text	00000000000001cc wasm_functype_copy
0000000000001608 l     F .text	0000000000000034 strtof
00000000000298e8 l     F .text	0000000000000420 wasm_loader_load
000000000002a2b8 l     F .text	0000000000000034 strcspn
0000000000029818 l     F .text	00000000000000d0 wasm_loader_load_from_sections
000000000000d920 l     F .text	00000000000000f4 aot_get_indirect_function
0000000000002960 l     F .text	0000000000000044 wasm_runtime_get_function_type
000000000000e2e0 l     F .text	0000000000000048 init_plt_table
0000000000015020 l     F .text	00000000000000d8 wasmtime_ssp_path_unlink_file
0000000000004090 l     F .text	000000000000029c wasm_runtime_invoke_native_raw
000000000000f718 l     F .text	0000000000000178 bh_hash_map_create
0000000000000a98 l     F .text	0000000000000034 fsync
000000000000f418 l     F .text	0000000000000004 mem_allocator_destroy
000000000002a1d8 l     F .text	0000000000000034 getsockopt
0000000000012e50 l     F .text	0000000000000184 wasmtime_ssp_fd_write
0000000000005228 l     F .text	000000000000001c temp_recover_all_io_signal_pending
0000000000000f38 l     F .text	0000000000000034 symlinkat
0000000000015a30 l     F .text	000000000000017c wasmtime_ssp_sock_send
000000000002a370 l     F .text	0000000000000008 os_mutex_destroy
00000000000058c0 l     F .text	0000000000000004 wasm_load
000000000000f410 l     F .text	0000000000000004 mem_allocator_create_with_struct_and_pool
0000000000012c58 l     F .text	00000000000000ac wasmtime_ssp_fd_fdstat_set_rights
000000000001e530 l     F .text	0000000000000030 wasm_exec_env_set_thread_info
000000000003f258 l     O *ABS*	0000000000000000 _GLOBAL_OFFSET_TABLE_
00000000000143a0 l     F .text	0000000000000140 wasmtime_ssp_path_rename
000000000000e7c0 l     F .text	0000000000000008 pthread_mutex_destroy
000000000000f438 l     F .text	000000000000000c mem_allocator_free
00000000000160a8 l     F .text	0000000000000080 fd_prestats_destroy
000000000000d5d8 l     F .text	0000000000000168 aot_enlarge_memory
000000000000f430 l     F .text	0000000000000004 mem_allocator_realloc
000000000000e7d0 l     F .text	0000000000000008 pthread_mutex_lock
0000000000000de0 l     F .text	0000000000000034 readlinkat
000000000000f408 l     F .text	0000000000000004 mem_allocator_create
000000000002adf8 l     F .text	0000000000000244 gc_realloc_vo
00000000000116d0 l     F .text	0000000000000134 fd_prestats_insert
000000000000e788 l     F .text	000000000000000c __errno_location
00000000000023c0 l     F .text	0000000000000020 wasm_runtime_memory_pool_size
0000000000000b08 l     F .text	0000000000000034 getrandom
000000000000d348 l     F .text	00000000000000ac aot_module_dup_data
000000000001ad70 l     F .text	000000000000016c wasm_func_copy
000000000000d3f8 l     F .text	0000000000000060 aot_validate_app_addr
0000000000015e68 l     F .text	000000000000001c wasmtime_ssp_args_sizes_get
0000000000015d78 l     F .text	00000000000000ec wasmtime_ssp_args_get
00000000000144e0 l     F .text	000000000000022c wasmtime_ssp_fd_filestat_get
0000000000000c90 l     F .text	0000000000000034 openat
00000000000072a8 l     F .text	0000000000000064 wasm_validate_app_addr
000000000002bc90 l     F .text	0000000000000058 bh_vector_destroy
000000000001b448 l     F .text	0000000000000198 wasm_global_copy
000000000002a328 l     F .text	0000000000000034 strspn
0000000000011bd0 l     F .text	0000000000000080 wasmtime_ssp_fd_prestat_get
000000000002b620 l     F .text	0000000000000100 bh_vector_init
000000000000e7c8 l     F .text	0000000000000008 pthread_mutex_init
0000000000001210 l     F .text	00000000000000b4 os_printf
0000000000011850 l     F .text	000000000000037c fd_table_insert_existing
0000000000000c58 l     F .text	0000000000000034 open
000000000000d538 l     F .text	0000000000000044 aot_get_app_addr_range
000000000000f890 l     F .text	000000000000014c bh_hash_map_insert
00000000000115d8 l     F .text	00000000000000b0 wasmtime_ssp_clock_time_get
000000000000f458 l     F .text	0000000000000064 b_memcpy_s
0000000000006d48 l     F .text	0000000000000024 wasm_set_exception
0000000000011c50 l     F .text	00000000000000c0 wasmtime_ssp_fd_prestat_dir_name
00000000000058d8 l     F .text	0000000000000124 wasm_deinstantiate
0000000000000920 l     F .text	0000000000000034 closedir
0000000000011528 l     F .text	00000000000000b0 wasmtime_ssp_clock_res_get
0000000000005a00 l     F .text	000000000000007c wasm_lookup_function
000000000000f618 l     F .text	0000000000000080 bh_strdup
000000000002a248 l     F .text	0000000000000034 recvmsg
0000000000000958 l     F .text	0000000000000048 fcntl
0000000000000ee0 l     F .text	0000000000000034 sched_yield
000000000002a468 l     F .text	0000000000000034 clock_nanosleep
000000000002a390 l     F .text	0000000000000008 os_self_thread
0000000000014e88 l     F .text	0000000000000194 wasmtime_ssp_path_symlink
0000000000007688 l     F .text	0000000000000188 wasm_call_indirect
00000000000008e8 l     F .text	0000000000000034 close
000000000002b488 l     F .text	0000000000000008 gc_get_heap_struct_size
0000000000012940 l     F .text	000000000000012c wasmtime_ssp_fd_fdstat_get
0000000000016268 l     F .text	00000000000000bc str_nullterminate
000000000000e328 l     F .text	0000000000000008 get_plt_table_size
0000000000018cc0 l     F .text	00000000000000b8 wasm_externtype_copy
0000000000002b50 l     F .text	000000000000002c wasm_runtime_get_exec_env_singleton
0000000000000f70 l     F .text	0000000000000034 telldir
000000000001bfc8 l     F .text	00000000000000f8 wasm_extern_delete
000000000002a168 l     F .text	0000000000000034 raise
0000000000003320 g     F .text	0000000000000024 .hidden wasm_runtime_set_custom_data_internal
0000000000f50f38 g     O .bss	0000000000000008 .hidden profile_times
0000000000010a50 g     F .text	0000000000000178 .hidden check_app_timers
0000000000001330 g     F .text	000000000000001c .hidden strcpy
0000000000019360 g     F .text	00000000000000f8 .hidden wasm_importtype_new
0000000000019bb8 g     F .text	0000000000000014 .hidden wasm_exporttype_type
000000000000ee10 g     F .text	0000000000000010 .hidden fabs
000000000001c848 g     F .text	000000000000006c .hidden wasm_store_vec_delete
0000000000010528 g     F .text	00000000000000e0 .hidden sys_create_timer
000000000001d290 g     F .text	0000000000000020 .hidden wasm_instance_exports
0000000000016860 g     F .text	0000000000000050 .hidden wasm_byte_vec_new_uninitialized
000000000000e7a8 g     F .text	0000000000000008 .hidden pthread_cond_signal
0000000000000000       F *UND*	0000000000000000 TEE_Realloc
000000000001ca30 g     F .text	0000000000000094 .hidden wasm_store_vec_new_uninitialized
0000000000003460 g     F .text	0000000000000020 wasm_runtime_addr_app_to_native
000000000001a0e8 g     F .text	0000000000000004 .hidden wasm_module_delete
000000000002dde4 g     F .text	0000000000000000 invokeNative
000000000001aba8 g     F .text	00000000000000a8 .hidden wasm_func_new
0000000000050e58 g     O .bss	0000000000000004 native_lib_loaded_count
0000000000000000       F *UND*	0000000000000000 TEE_InvokeTACommand
00000000000172f0 g     F .text	000000000000008c .hidden wasm_module_vec_delete
000000000001e280 g     F .text	0000000000000004 .hidden wasm_extern_as_global
000000000000b1b0 g     F .text	0000000000000004 .hidden aot_get_plt_table_size
000000000002dc64 g     F .text	0000000000000180 tee_uuid_from_str
0000000000019cb0 g     F .text	000000000000011c .hidden wasm_trap_new
0000000000018c90 g     F .text	0000000000000004 .hidden wasm_externtype_as_memorytype_const
0000000000018c70 g     F .text	0000000000000004 .hidden wasm_memorytype_as_externtype
0000000000016c60 g     F .text	00000000000000e4 .hidden wasm_valtype_vec_new
0000000000000000       F *UND*	0000000000000000 memmove
00000000000011c8 g     F .text	0000000000000014 tzio_set_output_buffer
0000000000000000       F *UND*	0000000000000000 snprintf
0000000000002b80 g     F .text	000000000000001c wasm_runtime_set_exception
000000000001c0c0 g     F .text	00000000000000cc .hidden wasm_extern_vec_new
000000000001aee0 g     F .text	0000000000000010 .hidden wasm_func_type
0000000000000000       O *UND*	0000000000000000 __stack_chk_guard
0000000000003658 g     F .text	0000000000000060 wasm_runtime_set_wasi_args_ex
0000000000018c60 g     F .text	0000000000000004 .hidden wasm_functype_as_externtype
000000000001e2e0 g     F .text	0000000000000004 .hidden wasm_global_as_extern_const
0000000000000308 g     F .text	0000000000000004 TA_SetOutputBuffer
000000000001a0f0 g     F .text	0000000000000694 .hidden wasm_module_imports
000000000001cce8 g     F .text	0000000000000044 .hidden wasm_engine_new_with_args
0000000000050ea0 g     O .bss	0000000000000008 singleton_wamr_context
00000000000375d8 g     O .rodata	0000000000000008 ta_heap_size
0000000000003440 g     F .text	0000000000000020 wasm_runtime_validate_native_addr
0000000000002950 g     F .text	0000000000000008 wasm_runtime_set_user_data
0000000000003480 g     F .text	0000000000000020 wasm_runtime_addr_native_to_app
000000000001b2d8 g     F .text	000000000000016c .hidden wasm_global_new
0000000000000588 g     F .text	0000000000000040 TA_TearDownWamrRuntime
000000000000eb60 g     F .text	0000000000000138 .hidden ceil
00000000000184c0 g     F .text	000000000000004c .hidden wasm_globaltype_new
000000000000ea20 g     F .text	0000000000000140 .hidden floor
0000000000018c78 g     F .text	0000000000000004 .hidden wasm_tabletype_as_externtype
0000000000003610 g     F .text	0000000000000024 .hidden wasm_runtime_set_llvm_stack
000000000001be48 g     F .text	00000000000000ac .hidden wasm_memory_copy
0000000000003568 g     F .text	0000000000000020 wasm_runtime_get_native_addr_range
00000000000169f0 g     F .text	000000000000000c .hidden wasm_byte_vec_delete
0000000000000020 g       .text	0000000000000000 __text_start
00000000000181e8 g     F .text	0000000000000140 .hidden wasm_extern_vec_delete
000000000001c5c8 g     F .text	00000000000000a0 .hidden wasm_instance_vec_new
0000000000018490 g     F .text	0000000000000014 .hidden wasm_functype_params
000000000000ca58 g     F .text	0000000000000250 .hidden aot_set_exception_with_id
00000000000375d0 g     O .rodata	0000000000000008 __ta_no_share_heap_size
0000000000018328 g     F .text	0000000000000168 .hidden wasm_extern_vec_new_uninitialized
0000000000018bc0 g     F .text	0000000000000048 .hidden wasm_memorytype_copy
00000000000173d0 g     F .text	000000000000000c .hidden wasm_valtype_delete
00000000000034c0 g     F .text	00000000000000a8 wasm_runtime_validate_app_str_addr
0000000000000000       F *UND*	0000000000000000 trace_printf
000000000001ce18 g     F .text	0000000000000050 .hidden wasm_instance_vec_new_uninitialized
0000000000019c00 g     F .text	00000000000000b0 .hidden wasm_val_same
0000000000000000       F *UND*	0000000000000000 memcpy
0000000000010348 g     F .text	00000000000000e8 .hidden create_timer_ctx
00000000000028e0 g     F .text	0000000000000004 wasm_runtime_create_exec_env
0000000000019ba0 g     F .text	0000000000000014 .hidden wasm_exporttype_name
0000000000003fb0 g     F .text	0000000000000044 .hidden wasm_exec_env_get_module
00000000000171f8 g     F .text	00000000000000f8 .hidden wasm_module_vec_copy
000000000000dff0 g     F .text	0000000000000004 .hidden aot_memmove
00000000000027c8 g     F .text	0000000000000058 .hidden wasm_runtime_instantiate_internal
0000000000017000 g     F .text	0000000000000010 .hidden wasm_exporttype_vec_new_empty
0000000000003588 g     F .text	000000000000002c .hidden wasm_runtime_get_temp_ret
0000000000000000       F *UND*	0000000000000000 TEE_GetREETime
000000000002deac g     F .text	0000000000000014 tolower
000000000001e190 g     F .text	0000000000000014 .hidden wasm_extern_kind
000000000003ff00 g     O .data	0000000000000108 ta_props
0000000000019be0 g     F .text	0000000000000020 .hidden wasm_val_copy
0000000000000000       F *UND*	0000000000000000 malloc
000000000000f080 g     F .text	0000000000000080 .hidden truncf
0000000000000b78 g     F .text	0000000000000034 .hidden isatty
000000000001bf30 g     F .text	000000000000005c .hidden wasm_memory_type
000000000001e2e8 g     F .text	0000000000000004 .hidden wasm_memory_as_extern_const
000000000001d2b0 g     F .text	0000000000000edc .hidden wasm_instance_new
0000000000010310 g     F .text	0000000000000038 .hidden release_timer_list
0000000000000000       F *UND*	0000000000000000 vsnprintf
000000000000fe70 g     F .text	0000000000000008 .hidden bh_hash_map_get_elem_struct_size
0000000000040710 g     O .data	0000000000000004 trace_level
00000000000102c8 g     F .text	0000000000000048 .hidden bh_get_elpased_ms
00000000000027a8 g     F .text	000000000000001c wasm_runtime_unload
0000000000017fd0 g     F .text	0000000000000100 .hidden wasm_exporttype_vec_delete
0000000000002c60 g     F .text	0000000000000340 wasm_runtime_call_wasm_a
00000000000375b0 g     O .rodata	0000000000000008 ta_num_props
0000000000050ea8 g     O .bss	0000000000000040 native_lib_loaded_list
000000000002e100 g     F .text	0000000000000004 strtoul
000000000001c838 g     F .text	000000000000000c .hidden wasm_store_delete
000000000000fe78 g     F .text	00000000000000d0 .hidden bh_hash_map_traverse
000000000001b2b0 g     F .text	0000000000000024 .hidden wasm_func_result_arity
0000000000018b18 g     F .text	0000000000000038 .hidden wasm_tabletype_delete
00000000000375e0 g     O .rodata	0000000000000003 trace_ext_prefix
000000000002a1a0 g     F .text	0000000000000034 .hidden socket
00000000000033e0 g     F .text	000000000000001c wasm_runtime_module_free
000000000001c668 g     F .text	0000000000000090 .hidden wasm_instance_vec_copy
0000000000017040 g     F .text	00000000000000b4 .hidden wasm_module_vec_new_uninitialized
0000000000003420 g     F .text	0000000000000020 wasm_runtime_validate_app_addr
00000000000180d0 g     F .text	0000000000000118 .hidden wasm_importtype_vec_delete
000000000002e118 g     F .text	000000000000000c isspace
000000000001e2c0 g     F .text	0000000000000004 .hidden wasm_extern_as_global_const
0000000000018ca8 g     F .text	0000000000000004 .hidden wasm_globaltype_as_externtype_const
0000000000000600 g     F .text	0000000000000024 TA_DestroyEntryPoint
0000000000003638 g     F .text	0000000000000020 .hidden wasm_runtime_enlarge_memory
000000000001bf90 g     F .text	000000000000000c .hidden wasm_memory_data
000000000002dde4 g       .text	0000000000000000 _invokeNative
0000000000019eb0 g     F .text	0000000000000234 .hidden wasm_module_new
000000000001b8e8 g     F .text	00000000000001a0 .hidden wasm_global_get
0000000000000000       F *UND*	0000000000000000 tee_unmap
000000000002b880 g     F .text	00000000000001c4 .hidden bh_vector_insert
000000000001b790 g     F .text	0000000000000158 .hidden wasm_global_set
0000000000010608 g     F .text	0000000000000138 .hidden sys_timer_cancel
000000000002dad8 g     F .text	0000000000000048 dlclose
00000000000033c0 g     F .text	0000000000000020 .hidden wasm_runtime_module_realloc
000000000001ac50 g     F .text	00000000000000c4 .hidden wasm_func_new_with_env
0000000000000000       F *UND*	0000000000000000 __utee_tcb_init
0000000000000000       F *UND*	0000000000000000 abort
0000000000019bd0 g     F .text	000000000000000c .hidden wasm_val_delete
0000000000000000       F *UND*	0000000000000000 __stack_chk_fail
0000000000018c28 g     F .text	0000000000000014 .hidden wasm_externtype_kind
00000000000173a0 g     F .text	000000000000002c .hidden wasm_valtype_new
000000000001bfa0 g     F .text	0000000000000020 .hidden wasm_memory_data_size
0000000000050ee8 g     O .bss	0000000000f00000 ta_heap
00000000000035e0 g     F .text	000000000000002c .hidden wasm_runtime_get_llvm_stack
00000000000051a8 g     F .text	0000000000000014 all_signal_handled
000000000001c958 g     F .text	00000000000000d4 .hidden wasm_store_vec_copy
000000000002de84 g     F .text	0000000000000028 isxdigit
0000000000000000       F *UND*	0000000000000000 __utee_call_elf_init_fn
0000000000017380 g     F .text	0000000000000010 .hidden wasm_instance_vec_new_empty
0000000000000678 g     F .text	0000000000000024 TA_CloseSessionEntryPoint
00000000000167e0 g     F .text	0000000000000034 .hidden wasm_module_copy
0000000000016818 g     F .text	0000000000000034 .hidden wasm_instance_copy
000000000001e3c0 g     F .text	0000000000000028 .hidden wasm_exec_env_destroy_internal
000000000001e288 g     F .text	0000000000000004 .hidden wasm_extern_as_memory
0000000000000000       F *UND*	0000000000000000 _utee_return
0000000000004000 g     F .text	0000000000000088 wasm_runtime_full_init
000000000002df30 g     F .text	0000000000000028 strnlen
000000000001e2a8 g     F .text	0000000000000004 .hidden wasm_memory_as_extern
00000000000006a0 g     F .text	0000000000000224 TA_InvokeCommandEntryPoint
00000000000053a0 g     F .text	000000000000003c tzio_periph_to_io_helper_uuid
000000000000ecb8 g     F .text	0000000000000158 .hidden rint
0000000000002908 g     F .text	000000000000003c wasm_runtime_get_function_idx
000000000001c8b8 g     F .text	00000000000000a0 .hidden wasm_engine_delete
000000000002b040 g     F .text	0000000000000064 .hidden gc_dump_heap_stats
0000000000010890 g     F .text	0000000000000128 .hidden sys_timer_restart
0000000000019080 g     F .text	00000000000002e0 .hidden wasm_exporttype_vec_copy
0000000000000000       F *UND*	0000000000000000 TEE_Malloc
0000000000018988 g     F .text	0000000000000014 .hidden wasm_globaltype_content
00000000000109b8 g     F .text	0000000000000094 .hidden get_expiry_ms
000000000002b720 g     F .text	00000000000000b0 .hidden bh_vector_set
0000000000004088 g     F .text	0000000000000004 wasm_runtime_register_natives_raw
000000000001b288 g     F .text	0000000000000024 .hidden wasm_func_param_arity
0000000000050e5c g     O .bss	0000000000000004 native_lib_count
0000000000000628 g     F .text	000000000000004c TA_OpenSessionEntryPoint
0000000000017030 g     F .text	0000000000000010 .hidden wasm_module_vec_new_empty
0000000000f50f88 g       .bss	0000000000000000 __ftrace_buf_end
000000000000f070 g     F .text	000000000000000c .hidden signbit
0000000000016ed8 g     F .text	0000000000000128 .hidden wasm_functype_vec_delete
00000000000051c0 g     F .text	000000000000000c tzio_reset_poll_times
0000000000000510 g     F .text	0000000000000078 TA_ExecuteWamrRuntime
0000000000018b78 g     F .text	0000000000000048 .hidden wasm_memorytype_new
0000000000004768 g     F .text	00000000000000a8 .hidden wasm_runtime_call_indirect
00000000000053e0 g     F .text	0000000000000038 tzio_signo_to_io_helper_uuid
000000000000b270 g     F .text	0000000000000014 .hidden aot_next_tbl_inst
000000000000d740 g     F .text	00000000000000ac .hidden aot_is_wasm_type_equal
0000000000000000       F *UND*	0000000000000000 TEE_MemMove
0000000000002fa0 g     F .text	0000000000000354 wasm_runtime_call_wasm_v
0000000000018b68 g     F .text	0000000000000010 .hidden wasm_tabletype_limits
0000000000003400 g     F .text	0000000000000020 wasm_runtime_module_dup_data
0000000000003370 g     F .text	000000000000002c wasm_runtime_get_custom_data
00000000000023e0 g     F .text	000000000000008c wasm_runtime_malloc
0000000000016b00 g     F .text	00000000000000a4 .hidden wasm_val_vec_copy
0000000000018c48 g     F .text	0000000000000004 .hidden wasm_externtype_as_globaltype
0000000000f50f30 g     O .bss	0000000000000008 .hidden poll_times
0000000000016a00 g     F .text	0000000000000010 .hidden wasm_val_vec_new_empty
00000000000024e8 g     F .text	0000000000000060 wasm_runtime_free
0000000000018fb8 g     F .text	00000000000000c4 .hidden wasm_importtype_vec_new_uninitialized
00000000000002a0 g     F .text	0000000000000014 benchmark_get_store
000000000000fe48 g     F .text	0000000000000024 .hidden bh_hash_map_get_struct_size
000000000000d7f0 g     F .text	0000000000000130 .hidden aot_invoke_native
00000000000173e0 g     F .text	0000000000000038 .hidden wasm_valtype_copy
00000000000033a0 g     F .text	0000000000000020 wasm_runtime_module_malloc
000000000001cca8 g     F .text	0000000000000040 .hidden wasm_engine_new
000000000001c5b8 g     F .text	000000000000000c .hidden wasm_instance_vec_delete
0000000000018c98 g     F .text	0000000000000004 .hidden wasm_externtype_as_tabletype_const
0000000000016a60 g     F .text	00000000000000a0 .hidden wasm_val_vec_new
0000000000f50f88 g       .bss	0000000000000000 __ftrace_buf_start
000000000002e124 g     F .text	0000000000000010 isupper
00000000000104e0 g     F .text	0000000000000044 .hidden add_idle_timer
000000000002def4 g     F .text	000000000000003c strncmp
000000000002d9d8 g     F .text	0000000000000100 dlopen
0000000000016ec8 g     F .text	0000000000000010 .hidden wasm_functype_vec_new_empty
0000000000016a10 g     F .text	0000000000000050 .hidden wasm_val_vec_new_uninitialized
000000000000fac8 g     F .text	0000000000000130 .hidden bh_hash_map_update
00000000000029c8 g     F .text	00000000000000e4 wasm_runtime_call_wasm
00000000000197a0 g     F .text	000000000000010c .hidden wasm_importtype_vec_copy
0000000000003d70 g     F .text	0000000000000134 wasm_runtime_lookup_wasi_start_function
000000000001bc00 g     F .text	00000000000000d0 .hidden wasm_table_copy
000000000000ec98 g     F .text	000000000000000c .hidden fmin
0000000000016bc8 g     F .text	0000000000000094 .hidden wasm_valtype_vec_new_uninitialized
000000000000fbf8 g     F .text	0000000000000160 .hidden bh_hash_map_remove
0000000000002820 g     F .text	000000000000007c wasm_runtime_instantiate
0000000000002698 g     F .text	00000000000000ec wasm_runtime_load
0000000000003d40 g     F .text	0000000000000030 wasm_runtime_is_wasi_mode
00000000000028a0 g     F .text	0000000000000020 .hidden wasm_runtime_deinstantiate_internal
000000000001c190 g     F .text	0000000000000164 .hidden wasm_extern_copy
000000000000e7a0 g     F .text	0000000000000008 .hidden pthread_cond_init
000000000002ac08 g     F .text	000000000000001c .hidden gci_is_heap_valid
0000000000017558 g     F .text	00000000000000cc .hidden wasm_functype_vec_new
0000000000000000       F *UND*	0000000000000000 TEE_MemFill
000000000002dec0 g     F .text	0000000000000034 memcmp
0000000000017390 g     F .text	0000000000000010 .hidden wasm_extern_vec_new_empty
0000000000018a20 g     F .text	0000000000000050 .hidden wasm_tabletype_new
0000000000001c48 g     F .text	00000000000005a0 wasm_application_execute_func
000000000001b640 g     F .text	0000000000000150 .hidden wasm_global_same
000000000002e104 g     F .text	0000000000000014 isalpha
0000000000002900 g     F .text	0000000000000004 wasm_runtime_get_module_inst
0000000000018b50 g     F .text	0000000000000014 .hidden wasm_tabletype_element
0000000000000000       F *UND*	0000000000000000 __utee_entry
0000000000018c58 g     F .text	0000000000000004 .hidden wasm_externtype_as_tabletype
000000000002e134 g       .text	0000000000000000 __text_end
000000000001bb28 g     F .text	00000000000000d8 .hidden wasm_table_new
000000000001e1a8 g     F .text	00000000000000d0 .hidden wasm_extern_type
000000000001ad18 g     F .text	0000000000000058 .hidden wasm_func_delete
00000000000028c0 g     F .text	0000000000000020 wasm_runtime_deinstantiate
000000000001bfc0 g     F .text	0000000000000004 .hidden wasm_instance_delete
0000000000017010 g     F .text	0000000000000010 .hidden wasm_importtype_vec_new_empty
0000000000010430 g     F .text	00000000000000a8 .hidden destroy_timer_ctx
000000000002db20 g     F .text	00000000000000b8 dlsym
00000000000184a8 g     F .text	0000000000000014 .hidden wasm_functype_results
000000000001e2b8 g     F .text	0000000000000004 .hidden wasm_extern_as_func_const
0000000000f50f84 g     O .bss	0000000000000001 .hidden in_handler
000000000001e278 g     F .text	0000000000000004 .hidden wasm_extern_as_func
000000000000f2c8 g     F .text	00000000000000a0 .hidden fminf
000000000000ccb8 g     F .text	0000000000000008 .hidden aot_clear_exception
0000000000000000       F *UND*	0000000000000000 memset
000000000000f368 g     F .text	00000000000000a0 .hidden fmaxf
0000000000001200 g     F .text	0000000000000008 .hidden os_realloc
0000000000018cb8 g     F .text	0000000000000004 .hidden wasm_tabletype_as_externtype_const
0000000000040d20 g     O .bss	0000000000010000 .hidden io_sigtable
0000000000018c88 g     F .text	0000000000000004 .hidden wasm_externtype_as_globaltype_const
0000000000002470 g     F .text	0000000000000074 wasm_runtime_realloc
000000000001b5e0 g     F .text	000000000000005c .hidden wasm_global_delete
0000000000002958 g     F .text	0000000000000008 wasm_runtime_get_user_data
0000000000017f30 g     F .text	00000000000000a0 .hidden wasm_importtype_vec_new
0000000000019ad8 g     F .text	00000000000000c8 .hidden wasm_exporttype_delete
000000000001e2d8 g     F .text	0000000000000004 .hidden wasm_func_as_extern_const
0000000000019980 g     F .text	0000000000000158 .hidden wasm_exporttype_copy
00000000000051d0 g     F .text	000000000000000c tzio_get_poll_times
00000000000198b0 g     F .text	0000000000000014 .hidden wasm_importtype_module
0000000000016ba8 g     F .text	000000000000000c .hidden wasm_val_vec_delete
00000000000032f8 g     F .text	0000000000000020 wasm_runtime_get_exception
000000000001bd20 g     F .text	00000000000000ac .hidden wasm_table_type
000000000001bdd0 g     F .text	0000000000000074 .hidden wasm_memory_new
0000000000000020 g     F .text	0000000000000204 load_native_lib
0000000000003ff8 g     F .text	0000000000000004 wasm_runtime_register_natives
000000000001e2f8 g     F .text	00000000000000c4 .hidden wasm_exec_env_create_internal
00000000000034a0 g     F .text	0000000000000020 wasm_runtime_get_app_addr_range
0000000000000000       F *UND*	0000000000000000 strcmp
00000000000189b8 g     F .text	0000000000000068 .hidden wasm_globaltype_same
0000000000004fa0 g     F .text	0000000000000044 tzio_periph_to_io_signal_no
000000000001e2b0 g     F .text	0000000000000004 .hidden wasm_table_as_extern
00000000000189a0 g     F .text	0000000000000014 .hidden wasm_globaltype_mutability
00000000000008e0 g     F .text	0000000000000008 tahead_get_trace_level
00000000000198f8 g     F .text	0000000000000088 .hidden wasm_exporttype_new
00000000000036b8 g     F .text	0000000000000034 wasm_runtime_set_wasi_args
0000000000018c50 g     F .text	0000000000000004 .hidden wasm_externtype_as_memorytype
0000000000000000       F *UND*	0000000000000000 tee_map_zi
0000000000002948 g     F .text	0000000000000008 wasm_runtime_get_function_attachment
0000000000019e10 g     F .text	00000000000000a0 .hidden wasm_trap_message
0000000000017b08 g     F .text	0000000000000078 .hidden wasm_functype_vec_new_uninitialized
00000000000170f8 g     F .text	00000000000000fc .hidden wasm_module_vec_new
000000000001e2d0 g     F .text	0000000000000004 .hidden wasm_extern_as_table_const
0000000000f50f6c g     O .bss	0000000000000004 os_test_global
000000000000f4c0 g     F .text	0000000000000064 .hidden b_memmove_s
0000000000017d50 g     F .text	00000000000000cc .hidden wasm_functype_vec_copy
00000000000028e8 g     F .text	0000000000000004 wasm_runtime_destroy_exec_env
000000000000dff8 g     F .text	0000000000000004 .hidden aot_memset
000000000001e2c8 g     F .text	0000000000000004 .hidden wasm_extern_as_memory_const
000000000000ee20 g     F .text	000000000000002c .hidden isnan
0000000000016e58 g     F .text	000000000000006c .hidden wasm_valtype_vec_delete
0000000000f50f28 g     O .bss	0000000000000008 .hidden io_sigpending
00000000000005c8 g     F .text	0000000000000034 TA_CreateEntryPoint
00000000000008c8 g     F .text	0000000000000014 __ta_entry
0000000000f50ee8 g     O .bss	0000000000000000 __ta_no_share_heap
00000000000011b0 g     F .text	0000000000000018 .hidden vedliot_set_output_buffer
00000000000028f0 g     F .text	0000000000000008 wasm_runtime_init_thread_env
0000000000016bb8 g     F .text	0000000000000010 .hidden wasm_valtype_vec_new_empty
000000000002b5c0 g     F .text	0000000000000060 .hidden gc_heap_stats
0000000000018c40 g     F .text	0000000000000004 .hidden wasm_externtype_as_functype
000000000002b0b0 g     F .text	000000000000011c .hidden gci_dump
00000000000168b0 g     F .text	000000000000009c .hidden wasm_byte_vec_new
0000000000f50f40 g     O .bss	0000000000000008 .hidden recover_io_sigpending
0000000000017430 g     F .text	0000000000000038 .hidden wasm_valtype_same
000000000001e2a0 g     F .text	0000000000000004 .hidden wasm_global_as_extern
0000000000050e60 g     O .bss	0000000000000040 native_lib_list
0000000000000000       F *UND*	0000000000000000 TEE_Free
0000000000000228 g     F .text	0000000000000078 load_and_register_native_libs
000000000001ce68 g     F .text	000000000000021c .hidden wasm_store_new
000000000000f178 g     F .text	00000000000000a8 .hidden ceilf
00000000000051f0 g     F .text	000000000000000c tzio_get_profile_times
0000000000018c68 g     F .text	0000000000000004 .hidden wasm_globaltype_as_externtype
00000000000029a8 g     F .text	0000000000000020 wasm_runtime_lookup_function
00000000000104d8 g     F .text	0000000000000008 .hidden timer_ctx_get_owner
000000000001e290 g     F .text	0000000000000004 .hidden wasm_extern_as_table
00000000000157c8 g     F .text	0000000000000084 .hidden wasmtime_ssp_proc_raise
000000000000eca8 g     F .text	000000000000000c .hidden fmax
0000000000000000       F *UND*	0000000000000000 tee_mprotect
000000000002df58 g     F .text	00000000000001a8 _strtoul
0000000000002618 g     F .text	0000000000000080 .hidden wasm_runtime_is_built_in_module
0000000000018ca0 g     F .text	0000000000000004 .hidden wasm_functype_as_externtype_const
00000000000051e0 g     F .text	000000000000000c tzio_reset_profile_times
000000000000e7b8 g     F .text	0000000000000008 .hidden pthread_cond_wait
0000000000003348 g     F .text	0000000000000024 wasm_runtime_set_custom_data
0000000000018c18 g     F .text	0000000000000010 .hidden wasm_memorytype_limits
0000000000002548 g     F .text	000000000000004c wasm_runtime_init
0000000000003318 g     F .text	0000000000000008 wasm_runtime_clear_exception
00000000000002b8 g     F .text	000000000000004c benchmark_get_value
000000000001a788 g     F .text	0000000000000420 .hidden wasm_module_exports
00000000000198c8 g     F .text	0000000000000014 .hidden wasm_importtype_name
0000000000000000       F *UND*	0000000000000000 TEE_OpenTASession
0000000000002788 g     F .text	000000000000001c wasm_runtime_load_from_sections
00000000000198e0 g     F .text	0000000000000014 .hidden wasm_importtype_type
00000000000028f8 g     F .text	0000000000000004 wasm_runtime_destroy_thread_env
0000000000016950 g     F .text	00000000000000a0 .hidden wasm_byte_vec_copy
0000000000010bc8 g     F .text	0000000000000070 .hidden cleanup_app_timers
000000000002b0a8 g     F .text	0000000000000008 .hidden gc_get_heap_highmark_size
00000000000025b0 g     F .text	0000000000000064 get_package_type
000000000001ba88 g     F .text	00000000000000a0 .hidden wasm_global_type
0000000000017020 g     F .text	0000000000000010 .hidden wasm_store_vec_new_empty
000000000000ccc0 g     F .text	00000000000000c4 .hidden aot_poll_ready_signal
000000000000e798 g     F .text	0000000000000008 .hidden pthread_cond_destroy
0000000000018e10 g     F .text	00000000000000ac .hidden wasm_exporttype_vec_new_uninitialized
0000000000010108 g     F .text	0000000000000084 .hidden bh_print_time
000000000001e298 g     F .text	0000000000000004 .hidden wasm_func_as_extern
000000000000f698 g     F .text	0000000000000080 .hidden wa_strdup
0000000000000310 g     F .text	00000000000001fc TA_InitializeWamrRuntime
0000000000017628 g     F .text	00000000000000e0 .hidden wasm_functype_new
0000000000000000       F *UND*	0000000000000000 strlen
000000000001bcd0 g     F .text	000000000000004c .hidden wasm_table_delete
000000000000f100 g     F .text	0000000000000078 .hidden rintf
0000000000002ba0 g     F .text	00000000000000c0 wasm_runtime_get_indirect_function
0000000000018c08 g     F .text	000000000000000c .hidden wasm_memorytype_delete
000000000001e2f0 g     F .text	0000000000000004 .hidden wasm_table_as_extern_const
0000000000003f90 g     F .text	0000000000000020 .hidden wasm_runtime_set_wasi_ctx
000000000000f220 g     F .text	00000000000000a4 .hidden floorf
0000000000018cb0 g     F .text	0000000000000004 .hidden wasm_memorytype_as_externtype_const
00000000000035b8 g     F .text	0000000000000024 .hidden wasm_runtime_set_temp_ret
0000000000016850 g     F .text	0000000000000010 .hidden wasm_byte_vec_new_empty
0000000000000000 g     O .ta_head	0000000000000020 ta_head
0000000000005248 g     F .text	0000000000000154 tzio_register_handler
000000000000ee50 g     F .text	0000000000000220 .hidden trunc
000000000001cd30 g     F .text	00000000000000e4 .hidden wasm_store_vec_new
000000000000e7b0 g     F .text	0000000000000008 .hidden pthread_cond_timedwait
0000000000017418 g     F .text	0000000000000014 .hidden wasm_valtype_kind
000000000001aef0 g     F .text	0000000000000398 .hidden wasm_func_call
0000000000002598 g     F .text	0000000000000018 wasm_runtime_destroy
00000000000016f0 g     F .text	0000000000000554 wasm_application_execute_main
0000000000010740 g     F .text	000000000000014c .hidden sys_timer_destroy
0000000000000000       F *UND*	0000000000000000 TEE_CloseTASession
000000000001bef8 g     F .text	0000000000000038 .hidden wasm_memory_delete
0000000000018c80 g     F .text	0000000000000004 .hidden wasm_externtype_as_functype_const
0000000000000000       F *UND*	0000000000000000 free
00000000000188b0 g     F .text	0000000000000038 .hidden wasm_globaltype_delete



Disassembly of section .text:

0000000000000020 <load_native_lib>:
load_native_lib():
/opt/watz-gpio/runtime-modified/product-mini/platforms/linux-trustzone/wamr_tzio/ta/native_lib.c:9
      20:	a9be7bfd 	stp	x29, x30, [sp, #-32]!
      24:	910003fd 	mov	x29, sp
      28:	a90153f3 	stp	x19, x20, [sp, #16]
      2c:	aa0003f4 	mov	x20, x0
/opt/watz-gpio/runtime-modified/product-mini/platforms/linux-trustzone/wamr_tzio/ta/native_lib.c:10
      30:	52800700 	mov	w0, #0x38                  	// #56
      34:	940008eb 	bl	23e0 <wasm_runtime_malloc>
      38:	aa0003f3 	mov	x19, x0
/opt/watz-gpio/runtime-modified/product-mini/platforms/linux-trustzone/wamr_tzio/ta/native_lib.c:11
      3c:	b40009c0 	cbz	x0, 174 <load_native_lib+0x154>
/opt/watz-gpio/runtime-modified/product-mini/platforms/linux-trustzone/wamr_tzio/ta/native_lib.c:17
      40:	d2800702 	mov	x2, #0x38                  	// #56
      44:	52800001 	mov	w1, #0x0                   	// #0
      48:	9400b88f 	bl	2e284 <memset@plt>
/opt/watz-gpio/runtime-modified/product-mini/platforms/linux-trustzone/wamr_tzio/ta/native_lib.c:19
      4c:	aa1403e0 	mov	x0, x20
      50:	52822041 	mov	w1, #0x1102                	// #4354
      54:	9400b661 	bl	2d9d8 <dlopen>
      58:	f9000260 	str	x0, [x19]
      5c:	b4000a60 	cbz	x0, 1a8 <load_native_lib+0x188>
/opt/watz-gpio/runtime-modified/product-mini/platforms/linux-trustzone/wamr_tzio/ta/native_lib.c:24
      60:	f00001a1 	adrp	x1, 37000 <signals.7908+0xf0>
      64:	91008021 	add	x1, x1, #0x20
      68:	9400b6ae 	bl	2db20 <dlsym>
      6c:	aa0003e1 	mov	x1, x0
/opt/watz-gpio/runtime-modified/product-mini/platforms/linux-trustzone/wamr_tzio/ta/native_lib.c:25
      70:	f9400260 	ldr	x0, [x19]
/opt/watz-gpio/runtime-modified/product-mini/platforms/linux-trustzone/wamr_tzio/ta/native_lib.c:24
      74:	f9000a61 	str	x1, [x19, #16]
/opt/watz-gpio/runtime-modified/product-mini/platforms/linux-trustzone/wamr_tzio/ta/native_lib.c:25
      78:	f00001a1 	adrp	x1, 37000 <signals.7908+0xf0>
      7c:	9100c021 	add	x1, x1, #0x30
      80:	9400b6a8 	bl	2db20 <dlsym>
      84:	aa0003e1 	mov	x1, x0
/opt/watz-gpio/runtime-modified/product-mini/platforms/linux-trustzone/wamr_tzio/ta/native_lib.c:26
      88:	f9400260 	ldr	x0, [x19]
/opt/watz-gpio/runtime-modified/product-mini/platforms/linux-trustzone/wamr_tzio/ta/native_lib.c:25
      8c:	f9000661 	str	x1, [x19, #8]
/opt/watz-gpio/runtime-modified/product-mini/platforms/linux-trustzone/wamr_tzio/ta/native_lib.c:26
      90:	f00001a1 	adrp	x1, 37000 <signals.7908+0xf0>
      94:	91010021 	add	x1, x1, #0x40
      98:	9400b6a2 	bl	2db20 <dlsym>
      9c:	f9000e60 	str	x0, [x19, #24]
/opt/watz-gpio/runtime-modified/product-mini/platforms/linux-trustzone/wamr_tzio/ta/native_lib.c:28
      a0:	f9400662 	ldr	x2, [x19, #8]
      a4:	b4000ac2 	cbz	x2, 1fc <load_native_lib+0x1dc>
/opt/watz-gpio/runtime-modified/product-mini/platforms/linux-trustzone/wamr_tzio/ta/native_lib.c:35
      a8:	f9400a60 	ldr	x0, [x19, #16]
      ac:	b4000080 	cbz	x0, bc <load_native_lib+0x9c>
/opt/watz-gpio/runtime-modified/product-mini/platforms/linux-trustzone/wamr_tzio/ta/native_lib.c:36
      b0:	d63f0000 	blr	x0
/opt/watz-gpio/runtime-modified/product-mini/platforms/linux-trustzone/wamr_tzio/ta/native_lib.c:37
      b4:	350008e0 	cbnz	w0, 1d0 <load_native_lib+0x1b0>
      b8:	f9400662 	ldr	x2, [x19, #8]
/opt/watz-gpio/runtime-modified/product-mini/platforms/linux-trustzone/wamr_tzio/ta/native_lib.c:46
      bc:	9100a261 	add	x1, x19, #0x28
      c0:	91008260 	add	x0, x19, #0x20
      c4:	d63f0040 	blr	x2
/opt/watz-gpio/runtime-modified/product-mini/platforms/linux-trustzone/wamr_tzio/ta/native_lib.c:45
      c8:	b9003260 	str	w0, [x19, #48]
/opt/watz-gpio/runtime-modified/product-mini/platforms/linux-trustzone/wamr_tzio/ta/native_lib.c:46
      cc:	2a0003e2 	mov	w2, w0
/opt/watz-gpio/runtime-modified/product-mini/platforms/linux-trustzone/wamr_tzio/ta/native_lib.c:49
      d0:	34000180 	cbz	w0, 100 <load_native_lib+0xe0>
/opt/watz-gpio/runtime-modified/product-mini/platforms/linux-trustzone/wamr_tzio/ta/native_lib.c:49 (discriminator 1)
      d4:	f9401260 	ldr	x0, [x19, #32]
      d8:	b4000140 	cbz	x0, 100 <load_native_lib+0xe0>
/opt/watz-gpio/runtime-modified/product-mini/platforms/linux-trustzone/wamr_tzio/ta/native_lib.c:49 (discriminator 2)
      dc:	f9401661 	ldr	x1, [x19, #40]
      e0:	b4000101 	cbz	x1, 100 <load_native_lib+0xe0>
/opt/watz-gpio/runtime-modified/product-mini/platforms/linux-trustzone/wamr_tzio/ta/native_lib.c:50 (discriminator 3)
      e4:	94000fc5 	bl	3ff8 <wasm_runtime_register_natives>
/opt/watz-gpio/runtime-modified/product-mini/platforms/linux-trustzone/wamr_tzio/ta/native_lib.c:49 (discriminator 3)
      e8:	72001c1f 	tst	w0, #0xff
      ec:	540000a0 	b.eq	100 <load_native_lib+0xe0>  // b.none
/opt/watz-gpio/runtime-modified/product-mini/platforms/linux-trustzone/wamr_tzio/ta/native_lib.c:68
      f0:	aa1303e0 	mov	x0, x19
      f4:	a94153f3 	ldp	x19, x20, [sp, #16]
      f8:	a8c27bfd 	ldp	x29, x30, [sp], #32
      fc:	d65f03c0 	ret
/opt/watz-gpio/runtime-modified/product-mini/platforms/linux-trustzone/wamr_tzio/ta/native_lib.c:52
     100:	aa1403e5 	mov	x5, x20
     104:	f00001a4 	adrp	x4, 37000 <signals.7908+0xf0>
     108:	f00001b4 	adrp	x20, 37000 <signals.7908+0xf0>
     10c:	91042084 	add	x4, x4, #0x108
     110:	91056280 	add	x0, x20, #0x158
     114:	52800023 	mov	w3, #0x1                   	// #1
     118:	52800042 	mov	w2, #0x2                   	// #2
     11c:	52800681 	mov	w1, #0x34                  	// #52
     120:	9400b81d 	bl	2e194 <trace_printf@plt>
/opt/watz-gpio/runtime-modified/product-mini/platforms/linux-trustzone/wamr_tzio/ta/native_lib.c:53
     124:	f9400e60 	ldr	x0, [x19, #24]
     128:	b4000040 	cbz	x0, 130 <load_native_lib+0x110>
/opt/watz-gpio/runtime-modified/product-mini/platforms/linux-trustzone/wamr_tzio/ta/native_lib.c:54
     12c:	d63f0000 	blr	x0
/opt/watz-gpio/runtime-modified/product-mini/platforms/linux-trustzone/wamr_tzio/ta/native_lib.c:61
     130:	f9400260 	ldr	x0, [x19]
     134:	b4000040 	cbz	x0, 13c <load_native_lib+0x11c>
/opt/watz-gpio/runtime-modified/product-mini/platforms/linux-trustzone/wamr_tzio/ta/native_lib.c:62
     138:	9400b668 	bl	2dad8 <dlclose>
/opt/watz-gpio/runtime-modified/product-mini/platforms/linux-trustzone/wamr_tzio/ta/native_lib.c:64
     13c:	f00001a4 	adrp	x4, 37000 <signals.7908+0xf0>
     140:	91050084 	add	x4, x4, #0x140
     144:	52800023 	mov	w3, #0x1                   	// #1
     148:	52800042 	mov	w2, #0x2                   	// #2
     14c:	52800801 	mov	w1, #0x40                  	// #64
     150:	91056280 	add	x0, x20, #0x158
     154:	9400b810 	bl	2e194 <trace_printf@plt>
/opt/watz-gpio/runtime-modified/product-mini/platforms/linux-trustzone/wamr_tzio/ta/native_lib.c:65
     158:	aa1303e0 	mov	x0, x19
/opt/watz-gpio/runtime-modified/product-mini/platforms/linux-trustzone/wamr_tzio/ta/native_lib.c:67
     15c:	d2800013 	mov	x19, #0x0                   	// #0
/opt/watz-gpio/runtime-modified/product-mini/platforms/linux-trustzone/wamr_tzio/ta/native_lib.c:65
     160:	940008e2 	bl	24e8 <wasm_runtime_free>
/opt/watz-gpio/runtime-modified/product-mini/platforms/linux-trustzone/wamr_tzio/ta/native_lib.c:68
     164:	aa1303e0 	mov	x0, x19
     168:	a94153f3 	ldp	x19, x20, [sp, #16]
     16c:	a8c27bfd 	ldp	x29, x30, [sp], #32
     170:	d65f03c0 	ret
/opt/watz-gpio/runtime-modified/product-mini/platforms/linux-trustzone/wamr_tzio/ta/native_lib.c:12
     174:	aa1403e5 	mov	x5, x20
     178:	52800023 	mov	w3, #0x1                   	// #1
     17c:	52800042 	mov	w2, #0x2                   	// #2
     180:	52800181 	mov	w1, #0xc                   	// #12
     184:	d00001a4 	adrp	x4, 36000 <free@plt+0x7cfc>
     188:	f00001a0 	adrp	x0, 37000 <signals.7908+0xf0>
     18c:	913e4084 	add	x4, x4, #0xf90
     190:	91056000 	add	x0, x0, #0x158
     194:	9400b800 	bl	2e194 <trace_printf@plt>
/opt/watz-gpio/runtime-modified/product-mini/platforms/linux-trustzone/wamr_tzio/ta/native_lib.c:68
     198:	aa1303e0 	mov	x0, x19
     19c:	a94153f3 	ldp	x19, x20, [sp, #16]
     1a0:	a8c27bfd 	ldp	x29, x30, [sp], #32
     1a4:	d65f03c0 	ret
/opt/watz-gpio/runtime-modified/product-mini/platforms/linux-trustzone/wamr_tzio/ta/native_lib.c:20
     1a8:	aa1403e5 	mov	x5, x20
     1ac:	d00001a4 	adrp	x4, 36000 <free@plt+0x7cfc>
     1b0:	f00001b4 	adrp	x20, 37000 <signals.7908+0xf0>
     1b4:	913fa084 	add	x4, x4, #0xfe8
     1b8:	91056280 	add	x0, x20, #0x158
     1bc:	52800023 	mov	w3, #0x1                   	// #1
     1c0:	52800042 	mov	w2, #0x2                   	// #2
     1c4:	52800281 	mov	w1, #0x14                  	// #20
     1c8:	9400b7f3 	bl	2e194 <trace_printf@plt>
/opt/watz-gpio/runtime-modified/product-mini/platforms/linux-trustzone/wamr_tzio/ta/native_lib.c:21
     1cc:	17ffffd9 	b	130 <load_native_lib+0x110>
/opt/watz-gpio/runtime-modified/product-mini/platforms/linux-trustzone/wamr_tzio/ta/native_lib.c:38
     1d0:	2a0003e6 	mov	w6, w0
     1d4:	aa1403e5 	mov	x5, x20
     1d8:	f00001a4 	adrp	x4, 37000 <signals.7908+0xf0>
     1dc:	f00001b4 	adrp	x20, 37000 <signals.7908+0xf0>
     1e0:	9102c084 	add	x4, x4, #0xb0
     1e4:	91056280 	add	x0, x20, #0x158
     1e8:	52800023 	mov	w3, #0x1                   	// #1
     1ec:	52800042 	mov	w2, #0x2                   	// #2
     1f0:	528004c1 	mov	w1, #0x26                  	// #38
     1f4:	9400b7e8 	bl	2e194 <trace_printf@plt>
/opt/watz-gpio/runtime-modified/product-mini/platforms/linux-trustzone/wamr_tzio/ta/native_lib.c:41
     1f8:	17ffffce 	b	130 <load_native_lib+0x110>
/opt/watz-gpio/runtime-modified/product-mini/platforms/linux-trustzone/wamr_tzio/ta/native_lib.c:29
     1fc:	aa1403e5 	mov	x5, x20
     200:	f00001a4 	adrp	x4, 37000 <signals.7908+0xf0>
     204:	f00001b4 	adrp	x20, 37000 <signals.7908+0xf0>
     208:	91016084 	add	x4, x4, #0x58
     20c:	91056280 	add	x0, x20, #0x158
     210:	52800023 	mov	w3, #0x1                   	// #1
     214:	52800042 	mov	w2, #0x2                   	// #2
     218:	528003a1 	mov	w1, #0x1d                  	// #29
     21c:	9400b7de 	bl	2e194 <trace_printf@plt>
/opt/watz-gpio/runtime-modified/product-mini/platforms/linux-trustzone/wamr_tzio/ta/native_lib.c:32
     220:	17ffffc4 	b	130 <load_native_lib+0x110>
     224:	d503201f 	nop

0000000000000228 <load_and_register_native_libs>:
load_and_register_native_libs():
/opt/watz-gpio/runtime-modified/product-mini/platforms/linux-trustzone/wamr_tzio/ta/native_lib.c:74
     228:	a9bd7bfd 	stp	x29, x30, [sp, #-48]!
     22c:	910003fd 	mov	x29, sp
     230:	a90153f3 	stp	x19, x20, [sp, #16]
/opt/watz-gpio/runtime-modified/product-mini/platforms/linux-trustzone/wamr_tzio/ta/native_lib.c:77
     234:	340002c1 	cbz	w1, 28c <load_and_register_native_libs+0x64>
     238:	51000421 	sub	w1, w1, #0x1
     23c:	a9025bf5 	stp	x21, x22, [sp, #32]
     240:	91002015 	add	x21, x0, #0x8
     244:	aa0203f6 	mov	x22, x2
     248:	aa0003f3 	mov	x19, x0
     24c:	8b214eb5 	add	x21, x21, w1, uxtw #3
/opt/watz-gpio/runtime-modified/product-mini/platforms/linux-trustzone/wamr_tzio/ta/native_lib.c:75
     250:	52800014 	mov	w20, #0x0                   	// #0
     254:	d503201f 	nop
/opt/watz-gpio/runtime-modified/product-mini/platforms/linux-trustzone/wamr_tzio/ta/native_lib.c:78
     258:	f9400260 	ldr	x0, [x19]
     25c:	91002273 	add	x19, x19, #0x8
     260:	97ffff70 	bl	20 <load_native_lib>
/opt/watz-gpio/runtime-modified/product-mini/platforms/linux-trustzone/wamr_tzio/ta/native_lib.c:79
     264:	b4000060 	cbz	x0, 270 <load_and_register_native_libs+0x48>
/opt/watz-gpio/runtime-modified/product-mini/platforms/linux-trustzone/wamr_tzio/ta/native_lib.c:82
     268:	f8345ac0 	str	x0, [x22, w20, uxtw #3]
     26c:	11000694 	add	w20, w20, #0x1
/opt/watz-gpio/runtime-modified/product-mini/platforms/linux-trustzone/wamr_tzio/ta/native_lib.c:77 (discriminator 2)
     270:	eb15027f 	cmp	x19, x21
     274:	54ffff21 	b.ne	258 <load_and_register_native_libs+0x30>  // b.any
/opt/watz-gpio/runtime-modified/product-mini/platforms/linux-trustzone/wamr_tzio/ta/native_lib.c:86
     278:	2a1403e0 	mov	w0, w20
     27c:	a94153f3 	ldp	x19, x20, [sp, #16]
     280:	a9425bf5 	ldp	x21, x22, [sp, #32]
     284:	a8c37bfd 	ldp	x29, x30, [sp], #48
     288:	d65f03c0 	ret
/opt/watz-gpio/runtime-modified/product-mini/platforms/linux-trustzone/wamr_tzio/ta/native_lib.c:75
     28c:	52800014 	mov	w20, #0x0                   	// #0
/opt/watz-gpio/runtime-modified/product-mini/platforms/linux-trustzone/wamr_tzio/ta/native_lib.c:86
     290:	2a1403e0 	mov	w0, w20
     294:	a94153f3 	ldp	x19, x20, [sp, #16]
     298:	a8c37bfd 	ldp	x29, x30, [sp], #48
     29c:	d65f03c0 	ret

00000000000002a0 <benchmark_get_store>:
benchmark_get_store():
/opt/watz-gpio/runtime-modified/product-mini/platforms/linux-trustzone/wamr_tzio/ta/tee_benchmarks.c:9
     2a0:	90000281 	adrp	x1, 50000 <io_sigtable+0xf2e0>
     2a4:	91348021 	add	x1, x1, #0xd20
     2a8:	52800302 	mov	w2, #0x18                  	// #24
/opt/watz-gpio/runtime-modified/product-mini/platforms/linux-trustzone/wamr_tzio/ta/tee_benchmarks.c:10
     2ac:	9ba20400 	umaddl	x0, w0, w2, x1
     2b0:	d65f03c0 	ret
     2b4:	d503201f 	nop

00000000000002b8 <benchmark_get_value>:
benchmark_get_value():
/opt/watz-gpio/runtime-modified/product-mini/platforms/linux-trustzone/wamr_tzio/ta/tee_benchmarks.c:13
     2b8:	d37f7c01 	ubfiz	x1, x0, #1, #32
     2bc:	90000283 	adrp	x3, 50000 <io_sigtable+0xf2e0>
     2c0:	8b204021 	add	x1, x1, w0, uxtw
     2c4:	91348063 	add	x3, x3, #0xd20
     2c8:	d29ef9e2 	mov	x2, #0xf7cf                	// #63439
     2cc:	52884804 	mov	w4, #0x4240                	// #16960
     2d0:	d37df021 	lsl	x1, x1, #3
     2d4:	f2bc6a62 	movk	x2, #0xe353, lsl #16
     2d8:	8b010065 	add	x5, x3, x1
     2dc:	f2d374a2 	movk	x2, #0x9ba5, lsl #32
     2e0:	f2e41882 	movk	x2, #0x20c4, lsl #48
     2e4:	72a001e4 	movk	w4, #0xf, lsl #16
     2e8:	b8616860 	ldr	w0, [x3, x1]
     2ec:	f94008a1 	ldr	x1, [x5, #16]
     2f0:	9b427c22 	smulh	x2, x1, x2
     2f4:	9347fc42 	asr	x2, x2, #7
     2f8:	cb81fc42 	sub	x2, x2, x1, asr #63
/opt/watz-gpio/runtime-modified/product-mini/platforms/linux-trustzone/wamr_tzio/ta/tee_benchmarks.c:14
     2fc:	9ba40800 	umaddl	x0, w0, w4, x2
     300:	d65f03c0 	ret
     304:	00000000 	.inst	0x00000000 ; undefined

0000000000000308 <TA_SetOutputBuffer>:
TA_SetOutputBuffer():
/opt/watz-gpio/runtime-modified/product-mini/platforms/linux-trustzone/wamr_tzio/ta/wasm.c:15
     308:	140003b0 	b	11c8 <tzio_set_output_buffer>
     30c:	d503201f 	nop

0000000000000310 <TA_InitializeWamrRuntime>:
TA_InitializeWamrRuntime():
/opt/watz-gpio/runtime-modified/product-mini/platforms/linux-trustzone/wamr_tzio/ta/wasm.c:19
     310:	d10483ff 	sub	sp, sp, #0x120
     314:	a9017bfd 	stp	x29, x30, [sp, #16]
     318:	910043fd 	add	x29, sp, #0x10
     31c:	a90253f3 	stp	x19, x20, [sp, #32]
     320:	f00001f3 	adrp	x19, 3f000 <_DYNAMIC>
     324:	aa0003f4 	mov	x20, x0
     328:	f9413660 	ldr	x0, [x19, #616]
     32c:	a9035bf5 	stp	x21, x22, [sp, #48]
/opt/watz-gpio/runtime-modified/product-mini/platforms/linux-trustzone/wamr_tzio/ta/wasm.c:21
     330:	910183f5 	add	x21, sp, #0x60
/opt/watz-gpio/runtime-modified/product-mini/platforms/linux-trustzone/wamr_tzio/ta/wasm.c:19
     334:	f9400003 	ldr	x3, [x0]
     338:	f9008fe3 	str	x3, [sp, #280]
     33c:	d2800003 	mov	x3, #0x0                   	// #0
     340:	aa0203f6 	mov	x22, x2
/opt/watz-gpio/runtime-modified/product-mini/platforms/linux-trustzone/wamr_tzio/ta/wasm.c:21
     344:	aa1503e0 	mov	x0, x21
     348:	d2800702 	mov	x2, #0x38                  	// #56
/opt/watz-gpio/runtime-modified/product-mini/platforms/linux-trustzone/wamr_tzio/ta/wasm.c:19
     34c:	a90463f7 	stp	x23, x24, [sp, #64]
     350:	2a0103f7 	mov	w23, w1
/opt/watz-gpio/runtime-modified/product-mini/platforms/linux-trustzone/wamr_tzio/ta/wasm.c:21
     354:	52800001 	mov	w1, #0x0                   	// #0
     358:	9400b7c3 	bl	2e264 <TEE_MemFill@plt>
/opt/watz-gpio/runtime-modified/product-mini/platforms/linux-trustzone/wamr_tzio/ta/wasm.c:23
     35c:	b90063ff 	str	wzr, [sp, #96]
/opt/watz-gpio/runtime-modified/product-mini/platforms/linux-trustzone/wamr_tzio/ta/wasm.c:25
     360:	b9401a82 	ldr	w2, [x20, #24]
/opt/watz-gpio/runtime-modified/product-mini/platforms/linux-trustzone/wamr_tzio/ta/wasm.c:27
     364:	aa1503e0 	mov	x0, x21
/opt/watz-gpio/runtime-modified/product-mini/platforms/linux-trustzone/wamr_tzio/ta/wasm.c:24
     368:	f9400a83 	ldr	x3, [x20, #16]
     36c:	f90037e3 	str	x3, [sp, #104]
/opt/watz-gpio/runtime-modified/product-mini/platforms/linux-trustzone/wamr_tzio/ta/wasm.c:25
     370:	b90073e2 	str	w2, [sp, #112]
/opt/watz-gpio/runtime-modified/product-mini/platforms/linux-trustzone/wamr_tzio/ta/wasm.c:27
     374:	94000f23 	bl	4000 <wasm_runtime_full_init>
     378:	72001c1f 	tst	w0, #0xff
     37c:	54000840 	b.eq	484 <TA_InitializeWamrRuntime+0x174>  // b.none
/opt/watz-gpio/runtime-modified/product-mini/platforms/linux-trustzone/wamr_tzio/ta/wasm.c:39
     380:	f9414a64 	ldr	x4, [x19, #656]
/opt/watz-gpio/runtime-modified/product-mini/platforms/linux-trustzone/wamr_tzio/ta/wasm.c:37
     384:	f00001a5 	adrp	x5, 37000 <signals.7908+0xf0>
     388:	f9415e60 	ldr	x0, [x19, #696]
     38c:	910660a5 	add	x5, x5, #0x198
/opt/watz-gpio/runtime-modified/product-mini/platforms/linux-trustzone/wamr_tzio/ta/wasm.c:40
     390:	f9414262 	ldr	x2, [x19, #640]
/opt/watz-gpio/runtime-modified/product-mini/platforms/linux-trustzone/wamr_tzio/ta/wasm.c:38
     394:	f00001a3 	adrp	x3, 37000 <signals.7908+0xf0>
     398:	91070063 	add	x3, x3, #0x1c0
     39c:	f9002bf9 	str	x25, [sp, #80]
/opt/watz-gpio/runtime-modified/product-mini/platforms/linux-trustzone/wamr_tzio/ta/wasm.c:39
     3a0:	52800059 	mov	w25, #0x2                   	// #2
/opt/watz-gpio/runtime-modified/product-mini/platforms/linux-trustzone/wamr_tzio/ta/wasm.c:40
     3a4:	2a1903e1 	mov	w1, w25
/opt/watz-gpio/runtime-modified/product-mini/platforms/linux-trustzone/wamr_tzio/ta/wasm.c:38
     3a8:	a9000c05 	stp	x5, x3, [x0]
/opt/watz-gpio/runtime-modified/product-mini/platforms/linux-trustzone/wamr_tzio/ta/wasm.c:41
     3ac:	f00001b8 	adrp	x24, 37000 <signals.7908+0xf0>
     3b0:	910ac318 	add	x24, x24, #0x2b0
/opt/watz-gpio/runtime-modified/product-mini/platforms/linux-trustzone/wamr_tzio/ta/wasm.c:39
     3b4:	b9000099 	str	w25, [x4]
/opt/watz-gpio/runtime-modified/product-mini/platforms/linux-trustzone/wamr_tzio/ta/wasm.c:40
     3b8:	97ffff9c 	bl	228 <load_and_register_native_libs>
     3bc:	f9413266 	ldr	x6, [x19, #608]
     3c0:	2a0003e5 	mov	w5, w0
/opt/watz-gpio/runtime-modified/product-mini/platforms/linux-trustzone/wamr_tzio/ta/wasm.c:41
     3c4:	2a1903e2 	mov	w2, w25
     3c8:	aa1803e0 	mov	x0, x24
     3cc:	52800023 	mov	w3, #0x1                   	// #1
     3d0:	52800521 	mov	w1, #0x29                  	// #41
     3d4:	f00001a4 	adrp	x4, 37000 <signals.7908+0xf0>
     3d8:	9107a084 	add	x4, x4, #0x1e8
/opt/watz-gpio/runtime-modified/product-mini/platforms/linux-trustzone/wamr_tzio/ta/wasm.c:40
     3dc:	b90000c5 	str	w5, [x6]
/opt/watz-gpio/runtime-modified/product-mini/platforms/linux-trustzone/wamr_tzio/ta/wasm.c:41
     3e0:	9400b76d 	bl	2e194 <trace_printf@plt>
/opt/watz-gpio/runtime-modified/product-mini/platforms/linux-trustzone/wamr_tzio/ta/wasm.c:49
     3e4:	b9400a81 	ldr	w1, [x20, #8]
     3e8:	910263f5 	add	x21, sp, #0x98
     3ec:	f9400280 	ldr	x0, [x20]
     3f0:	aa1503e2 	mov	x2, x21
     3f4:	52801003 	mov	w3, #0x80                  	// #128
     3f8:	940008a8 	bl	2698 <wasm_runtime_load>
     3fc:	f9001280 	str	x0, [x20, #32]
/opt/watz-gpio/runtime-modified/product-mini/platforms/linux-trustzone/wamr_tzio/ta/wasm.c:50
     400:	b4000560 	cbz	x0, 4ac <TA_InitializeWamrRuntime+0x19c>
/opt/watz-gpio/runtime-modified/product-mini/platforms/linux-trustzone/wamr_tzio/ta/wasm.c:59
     404:	b90003f7 	str	w23, [sp]
     408:	aa1603e7 	mov	x7, x22
     40c:	52800006 	mov	w6, #0x0                   	// #0
     410:	d2800005 	mov	x5, #0x0                   	// #0
     414:	52800004 	mov	w4, #0x0                   	// #0
     418:	d2800003 	mov	x3, #0x0                   	// #0
     41c:	52800002 	mov	w2, #0x0                   	// #0
     420:	d2800001 	mov	x1, #0x0                   	// #0
     424:	94000ca5 	bl	36b8 <wasm_runtime_set_wasi_args>
/opt/watz-gpio/runtime-modified/product-mini/platforms/linux-trustzone/wamr_tzio/ta/wasm.c:62
     428:	f9401280 	ldr	x0, [x20, #32]
     42c:	aa1503e3 	mov	x3, x21
     430:	52801004 	mov	w4, #0x80                  	// #128
     434:	5283f402 	mov	w2, #0x1fa0                	// #8096
     438:	52a00081 	mov	w1, #0x40000               	// #262144
     43c:	940008f9 	bl	2820 <wasm_runtime_instantiate>
     440:	f9001680 	str	x0, [x20, #40]
/opt/watz-gpio/runtime-modified/product-mini/platforms/linux-trustzone/wamr_tzio/ta/wasm.c:67
     444:	b40004a0 	cbz	x0, 4d8 <TA_InitializeWamrRuntime+0x1c8>
/opt/watz-gpio/runtime-modified/product-mini/platforms/linux-trustzone/wamr_tzio/ta/wasm.c:76
     448:	f9413a61 	ldr	x1, [x19, #624]
/opt/watz-gpio/runtime-modified/product-mini/platforms/linux-trustzone/wamr_tzio/ta/wasm.c:78
     44c:	52800000 	mov	w0, #0x0                   	// #0
/opt/watz-gpio/runtime-modified/product-mini/platforms/linux-trustzone/wamr_tzio/ta/wasm.c:76
     450:	f9402bf9 	ldr	x25, [sp, #80]
     454:	f9000034 	str	x20, [x1]
/opt/watz-gpio/runtime-modified/product-mini/platforms/linux-trustzone/wamr_tzio/ta/wasm.c:79
     458:	f9413673 	ldr	x19, [x19, #616]
     45c:	f9408fe2 	ldr	x2, [sp, #280]
     460:	f9400261 	ldr	x1, [x19]
     464:	ca010041 	eor	x1, x2, x1
     468:	b50004e1 	cbnz	x1, 504 <TA_InitializeWamrRuntime+0x1f4>
     46c:	a9417bfd 	ldp	x29, x30, [sp, #16]
     470:	a94253f3 	ldp	x19, x20, [sp, #32]
     474:	a9435bf5 	ldp	x21, x22, [sp, #48]
     478:	a94463f7 	ldp	x23, x24, [sp, #64]
     47c:	910483ff 	add	sp, sp, #0x120
     480:	d65f03c0 	ret
/opt/watz-gpio/runtime-modified/product-mini/platforms/linux-trustzone/wamr_tzio/ta/wasm.c:28
     484:	f00001a4 	adrp	x4, 37000 <signals.7908+0xf0>
     488:	f00001a0 	adrp	x0, 37000 <signals.7908+0xf0>
     48c:	9105a084 	add	x4, x4, #0x168
     490:	910ac000 	add	x0, x0, #0x2b0
     494:	52800023 	mov	w3, #0x1                   	// #1
     498:	52800022 	mov	w2, #0x1                   	// #1
     49c:	52800381 	mov	w1, #0x1c                  	// #28
     4a0:	9400b73d 	bl	2e194 <trace_printf@plt>
/opt/watz-gpio/runtime-modified/product-mini/platforms/linux-trustzone/wamr_tzio/ta/wasm.c:29
     4a4:	52bfffe0 	mov	w0, #0xffff0000            	// #-65536
     4a8:	17ffffec 	b	458 <TA_InitializeWamrRuntime+0x148>
/opt/watz-gpio/runtime-modified/product-mini/platforms/linux-trustzone/wamr_tzio/ta/wasm.c:51
     4ac:	aa1803e0 	mov	x0, x24
     4b0:	aa1503e5 	mov	x5, x21
     4b4:	f00001a4 	adrp	x4, 37000 <signals.7908+0xf0>
     4b8:	52800023 	mov	w3, #0x1                   	// #1
     4bc:	91084084 	add	x4, x4, #0x210
     4c0:	52800022 	mov	w2, #0x1                   	// #1
     4c4:	52800661 	mov	w1, #0x33                  	// #51
     4c8:	9400b733 	bl	2e194 <trace_printf@plt>
/opt/watz-gpio/runtime-modified/product-mini/platforms/linux-trustzone/wamr_tzio/ta/wasm.c:52
     4cc:	52bfffe0 	mov	w0, #0xffff0000            	// #-65536
     4d0:	f9402bf9 	ldr	x25, [sp, #80]
     4d4:	17ffffe1 	b	458 <TA_InitializeWamrRuntime+0x148>
/opt/watz-gpio/runtime-modified/product-mini/platforms/linux-trustzone/wamr_tzio/ta/wasm.c:68
     4d8:	aa1803e0 	mov	x0, x24
     4dc:	aa1503e5 	mov	x5, x21
     4e0:	f00001a4 	adrp	x4, 37000 <signals.7908+0xf0>
     4e4:	52800023 	mov	w3, #0x1                   	// #1
     4e8:	91090084 	add	x4, x4, #0x240
     4ec:	52800022 	mov	w2, #0x1                   	// #1
     4f0:	52800881 	mov	w1, #0x44                  	// #68
     4f4:	9400b728 	bl	2e194 <trace_printf@plt>
/opt/watz-gpio/runtime-modified/product-mini/platforms/linux-trustzone/wamr_tzio/ta/wasm.c:69
     4f8:	52bfffe0 	mov	w0, #0xffff0000            	// #-65536
     4fc:	f9402bf9 	ldr	x25, [sp, #80]
     500:	17ffffd6 	b	458 <TA_InitializeWamrRuntime+0x148>
     504:	f9002bf9 	str	x25, [sp, #80]
/opt/watz-gpio/runtime-modified/product-mini/platforms/linux-trustzone/wamr_tzio/ta/wasm.c:79
     508:	9400b743 	bl	2e214 <__stack_chk_fail@plt>
     50c:	d503201f 	nop

0000000000000510 <TA_ExecuteWamrRuntime>:
TA_ExecuteWamrRuntime():
/opt/watz-gpio/runtime-modified/product-mini/platforms/linux-trustzone/wamr_tzio/ta/wasm.c:82
     510:	a9be7bfd 	stp	x29, x30, [sp, #-32]!
/opt/watz-gpio/runtime-modified/product-mini/platforms/linux-trustzone/wamr_tzio/ta/wasm.c:83
     514:	d2800002 	mov	x2, #0x0                   	// #0
     518:	52800001 	mov	w1, #0x0                   	// #0
/opt/watz-gpio/runtime-modified/product-mini/platforms/linux-trustzone/wamr_tzio/ta/wasm.c:82
     51c:	910003fd 	mov	x29, sp
     520:	f9000bf3 	str	x19, [sp, #16]
     524:	aa0003f3 	mov	x19, x0
/opt/watz-gpio/runtime-modified/product-mini/platforms/linux-trustzone/wamr_tzio/ta/wasm.c:83
     528:	f9401400 	ldr	x0, [x0, #40]
     52c:	94000471 	bl	16f0 <wasm_application_execute_main>
     530:	72001c1f 	tst	w0, #0xff
     534:	540000a0 	b.eq	548 <TA_ExecuteWamrRuntime+0x38>  // b.none
/opt/watz-gpio/runtime-modified/product-mini/platforms/linux-trustzone/wamr_tzio/ta/wasm.c:89
     538:	52800000 	mov	w0, #0x0                   	// #0
/opt/watz-gpio/runtime-modified/product-mini/platforms/linux-trustzone/wamr_tzio/ta/wasm.c:90
     53c:	f9400bf3 	ldr	x19, [sp, #16]
     540:	a8c27bfd 	ldp	x29, x30, [sp], #32
     544:	d65f03c0 	ret
/opt/watz-gpio/runtime-modified/product-mini/platforms/linux-trustzone/wamr_tzio/ta/wasm.c:85
     548:	f9401660 	ldr	x0, [x19, #40]
     54c:	94000b6b 	bl	32f8 <wasm_runtime_get_exception>
     550:	aa0003e5 	mov	x5, x0
     554:	f00001a1 	adrp	x1, 37000 <signals.7908+0xf0>
     558:	910ac021 	add	x1, x1, #0x2b0
     55c:	91008020 	add	x0, x1, #0x20
     560:	52800023 	mov	w3, #0x1                   	// #1
     564:	52800022 	mov	w2, #0x1                   	// #1
     568:	52800aa1 	mov	w1, #0x55                  	// #85
     56c:	f00001a4 	adrp	x4, 37000 <signals.7908+0xf0>
     570:	9109e084 	add	x4, x4, #0x278
     574:	9400b708 	bl	2e194 <trace_printf@plt>
/opt/watz-gpio/runtime-modified/product-mini/platforms/linux-trustzone/wamr_tzio/ta/wasm.c:86
     578:	52bfffe0 	mov	w0, #0xffff0000            	// #-65536
/opt/watz-gpio/runtime-modified/product-mini/platforms/linux-trustzone/wamr_tzio/ta/wasm.c:90
     57c:	f9400bf3 	ldr	x19, [sp, #16]
     580:	a8c27bfd 	ldp	x29, x30, [sp], #32
     584:	d65f03c0 	ret

0000000000000588 <TA_TearDownWamrRuntime>:
TA_TearDownWamrRuntime():
/opt/watz-gpio/runtime-modified/product-mini/platforms/linux-trustzone/wamr_tzio/ta/wasm.c:93
     588:	a9be7bfd 	stp	x29, x30, [sp, #-32]!
/opt/watz-gpio/runtime-modified/product-mini/platforms/linux-trustzone/wamr_tzio/ta/wasm.c:94
     58c:	f00001e1 	adrp	x1, 3f000 <_DYNAMIC>
/opt/watz-gpio/runtime-modified/product-mini/platforms/linux-trustzone/wamr_tzio/ta/wasm.c:93
     590:	910003fd 	mov	x29, sp
/opt/watz-gpio/runtime-modified/product-mini/platforms/linux-trustzone/wamr_tzio/ta/wasm.c:94
     594:	f9413821 	ldr	x1, [x1, #624]
/opt/watz-gpio/runtime-modified/product-mini/platforms/linux-trustzone/wamr_tzio/ta/wasm.c:93
     598:	f9000bf3 	str	x19, [sp, #16]
     59c:	aa0003f3 	mov	x19, x0
/opt/watz-gpio/runtime-modified/product-mini/platforms/linux-trustzone/wamr_tzio/ta/wasm.c:96
     5a0:	f9401400 	ldr	x0, [x0, #40]
/opt/watz-gpio/runtime-modified/product-mini/platforms/linux-trustzone/wamr_tzio/ta/wasm.c:94
     5a4:	f900003f 	str	xzr, [x1]
/opt/watz-gpio/runtime-modified/product-mini/platforms/linux-trustzone/wamr_tzio/ta/wasm.c:96
     5a8:	b4000040 	cbz	x0, 5b0 <TA_TearDownWamrRuntime+0x28>
/opt/watz-gpio/runtime-modified/product-mini/platforms/linux-trustzone/wamr_tzio/ta/wasm.c:98
     5ac:	940008c5 	bl	28c0 <wasm_runtime_deinstantiate>
/opt/watz-gpio/runtime-modified/product-mini/platforms/linux-trustzone/wamr_tzio/ta/wasm.c:101
     5b0:	f9401260 	ldr	x0, [x19, #32]
     5b4:	b4000040 	cbz	x0, 5bc <TA_TearDownWamrRuntime+0x34>
/opt/watz-gpio/runtime-modified/product-mini/platforms/linux-trustzone/wamr_tzio/ta/wasm.c:101 (discriminator 1)
     5b8:	9400087c 	bl	27a8 <wasm_runtime_unload>
/opt/watz-gpio/runtime-modified/product-mini/platforms/linux-trustzone/wamr_tzio/ta/wasm.c:103
     5bc:	f9400bf3 	ldr	x19, [sp, #16]
     5c0:	a8c27bfd 	ldp	x29, x30, [sp], #32
/opt/watz-gpio/runtime-modified/product-mini/platforms/linux-trustzone/wamr_tzio/ta/wasm.c:102
     5c4:	140007f5 	b	2598 <wasm_runtime_destroy>

00000000000005c8 <TA_CreateEntryPoint>:
TA_CreateEntryPoint():
/opt/watz-gpio/runtime-modified/product-mini/platforms/linux-trustzone/wamr_tzio/ta/main.c:18
     5c8:	a9bf7bfd 	stp	x29, x30, [sp, #-16]!
/opt/watz-gpio/runtime-modified/product-mini/platforms/linux-trustzone/wamr_tzio/ta/main.c:19
     5cc:	52800023 	mov	w3, #0x1                   	// #1
     5d0:	52800062 	mov	w2, #0x3                   	// #3
/opt/watz-gpio/runtime-modified/product-mini/platforms/linux-trustzone/wamr_tzio/ta/main.c:18
     5d4:	910003fd 	mov	x29, sp
/opt/watz-gpio/runtime-modified/product-mini/platforms/linux-trustzone/wamr_tzio/ta/main.c:19
     5d8:	52800261 	mov	w1, #0x13                  	// #19
     5dc:	f00001a4 	adrp	x4, 37000 <signals.7908+0xf0>
     5e0:	f00001a0 	adrp	x0, 37000 <signals.7908+0xf0>
     5e4:	910ba084 	add	x4, x4, #0x2e8
     5e8:	910f0000 	add	x0, x0, #0x3c0
     5ec:	9400b6ea 	bl	2e194 <trace_printf@plt>
/opt/watz-gpio/runtime-modified/product-mini/platforms/linux-trustzone/wamr_tzio/ta/main.c:21
     5f0:	52800000 	mov	w0, #0x0                   	// #0
     5f4:	a8c17bfd 	ldp	x29, x30, [sp], #16
     5f8:	d65f03c0 	ret
     5fc:	d503201f 	nop

0000000000000600 <TA_DestroyEntryPoint>:
TA_DestroyEntryPoint():
/opt/watz-gpio/runtime-modified/product-mini/platforms/linux-trustzone/wamr_tzio/ta/main.c:24
     600:	f00001a0 	adrp	x0, 37000 <signals.7908+0xf0>
     604:	910f0000 	add	x0, x0, #0x3c0
     608:	91006000 	add	x0, x0, #0x18
     60c:	f00001a4 	adrp	x4, 37000 <signals.7908+0xf0>
     610:	52800023 	mov	w3, #0x1                   	// #1
     614:	910ba084 	add	x4, x4, #0x2e8
     618:	52800062 	mov	w2, #0x3                   	// #3
     61c:	52800301 	mov	w1, #0x18                  	// #24
     620:	1400b6dd 	b	2e194 <trace_printf@plt>
     624:	d503201f 	nop

0000000000000628 <TA_OpenSessionEntryPoint>:
TA_OpenSessionEntryPoint():
/opt/watz-gpio/runtime-modified/product-mini/platforms/linux-trustzone/wamr_tzio/ta/main.c:27
     628:	a9be7bfd 	stp	x29, x30, [sp, #-32]!
/opt/watz-gpio/runtime-modified/product-mini/platforms/linux-trustzone/wamr_tzio/ta/main.c:32
     62c:	f00001a1 	adrp	x1, 37000 <signals.7908+0xf0>
     630:	910f0021 	add	x1, x1, #0x3c0
/opt/watz-gpio/runtime-modified/product-mini/platforms/linux-trustzone/wamr_tzio/ta/main.c:27
     634:	910003fd 	mov	x29, sp
/opt/watz-gpio/runtime-modified/product-mini/platforms/linux-trustzone/wamr_tzio/ta/main.c:32
     638:	52800023 	mov	w3, #0x1                   	// #1
     63c:	52800062 	mov	w2, #0x3                   	// #3
     640:	f00001a4 	adrp	x4, 37000 <signals.7908+0xf0>
     644:	910ba084 	add	x4, x4, #0x2e8
/opt/watz-gpio/runtime-modified/product-mini/platforms/linux-trustzone/wamr_tzio/ta/main.c:27
     648:	f9000bf3 	str	x19, [sp, #16]
     64c:	2a0003f3 	mov	w19, w0
/opt/watz-gpio/runtime-modified/product-mini/platforms/linux-trustzone/wamr_tzio/ta/main.c:32
     650:	9100c020 	add	x0, x1, #0x30
     654:	52800401 	mov	w1, #0x20                  	// #32
     658:	9400b6cf 	bl	2e194 <trace_printf@plt>
/opt/watz-gpio/runtime-modified/product-mini/platforms/linux-trustzone/wamr_tzio/ta/main.c:35
     65c:	7100027f 	cmp	w19, #0x0
     660:	129fff20 	mov	w0, #0xffff0006            	// #-65530
/opt/watz-gpio/runtime-modified/product-mini/platforms/linux-trustzone/wamr_tzio/ta/main.c:41
     664:	1a800260 	csel	w0, w19, w0, eq  // eq = none
     668:	f9400bf3 	ldr	x19, [sp, #16]
     66c:	a8c27bfd 	ldp	x29, x30, [sp], #32
     670:	d65f03c0 	ret
     674:	d503201f 	nop

0000000000000678 <TA_CloseSessionEntryPoint>:
TA_CloseSessionEntryPoint():
/opt/watz-gpio/runtime-modified/product-mini/platforms/linux-trustzone/wamr_tzio/ta/main.c:45
     678:	f00001a0 	adrp	x0, 37000 <signals.7908+0xf0>
     67c:	910f0000 	add	x0, x0, #0x3c0
     680:	91014000 	add	x0, x0, #0x50
     684:	f00001a4 	adrp	x4, 37000 <signals.7908+0xf0>
     688:	52800023 	mov	w3, #0x1                   	// #1
     68c:	910c2084 	add	x4, x4, #0x308
     690:	52800062 	mov	w2, #0x3                   	// #3
     694:	528005a1 	mov	w1, #0x2d                  	// #45
     698:	1400b6bf 	b	2e194 <trace_printf@plt>
     69c:	d503201f 	nop

00000000000006a0 <TA_InvokeCommandEntryPoint>:
TA_InvokeCommandEntryPoint():
/opt/watz-gpio/runtime-modified/product-mini/platforms/linux-trustzone/wamr_tzio/ta/main.c:157
     6a0:	a9b47bfd 	stp	x29, x30, [sp, #-192]!
     6a4:	aa0303e5 	mov	x5, x3
     6a8:	910003fd 	mov	x29, sp
     6ac:	a90153f3 	stp	x19, x20, [sp, #16]
     6b0:	f00001f3 	adrp	x19, 3f000 <_DYNAMIC>
     6b4:	f9413660 	ldr	x0, [x19, #616]
     6b8:	f9400003 	ldr	x3, [x0]
     6bc:	f9005fe3 	str	x3, [sp, #184]
     6c0:	d2800003 	mov	x3, #0x0                   	// #0
/opt/watz-gpio/runtime-modified/product-mini/platforms/linux-trustzone/wamr_tzio/ta/main.c:161
     6c4:	34000201 	cbz	w1, 704 <TA_InvokeCommandEntryPoint+0x64>
     6c8:	7100043f 	cmp	w1, #0x1
     6cc:	129fff34 	mov	w20, #0xffff0006            	// #-65530
     6d0:	54000081 	b.ne	6e0 <TA_InvokeCommandEntryPoint+0x40>  // b.any
/opt/watz-gpio/runtime-modified/product-mini/platforms/linux-trustzone/wamr_tzio/ta/main.c:178
     6d4:	7100045f 	cmp	w2, #0x1
/opt/watz-gpio/runtime-modified/product-mini/platforms/linux-trustzone/wamr_tzio/ta/main.c:165
     6d8:	129fff34 	mov	w20, #0xffff0006            	// #-65530
/opt/watz-gpio/runtime-modified/product-mini/platforms/linux-trustzone/wamr_tzio/ta/main.c:178
     6dc:	54000ce0 	b.eq	878 <TA_InvokeCommandEntryPoint+0x1d8>  // b.none
/opt/watz-gpio/runtime-modified/product-mini/platforms/linux-trustzone/wamr_tzio/ta/main.c:184
     6e0:	f9413673 	ldr	x19, [x19, #616]
     6e4:	f9405fe1 	ldr	x1, [sp, #184]
     6e8:	f9400260 	ldr	x0, [x19]
     6ec:	ca000020 	eor	x0, x1, x0
     6f0:	b5000e00 	cbnz	x0, 8b0 <TA_InvokeCommandEntryPoint+0x210>
     6f4:	2a1403e0 	mov	w0, w20
     6f8:	a94153f3 	ldp	x19, x20, [sp, #16]
     6fc:	a8cc7bfd 	ldp	x29, x30, [sp], #192
     700:	d65f03c0 	ret
/opt/watz-gpio/runtime-modified/product-mini/platforms/linux-trustzone/wamr_tzio/ta/main.c:165
     704:	528eeaa0 	mov	w0, #0x7755                	// #30549
     708:	129fff34 	mov	w20, #0xffff0006            	// #-65530
     70c:	6b00005f 	cmp	w2, w0
     710:	54fffe81 	b.ne	6e0 <TA_InvokeCommandEntryPoint+0x40>  // b.any
/opt/watz-gpio/runtime-modified/product-mini/platforms/linux-trustzone/wamr_tzio/ta/main.c:167
     714:	a9025bf5 	stp	x21, x22, [sp, #32]
TA_RunWasm():
/opt/watz-gpio/runtime-modified/product-mini/platforms/linux-trustzone/wamr_tzio/ta/main.c:60
     718:	52800023 	mov	w3, #0x1                   	// #1
     71c:	52800062 	mov	w2, #0x3                   	// #3
     720:	a9046bf9 	stp	x25, x26, [sp, #64]
     724:	52800781 	mov	w1, #0x3c                  	// #60
     728:	f00001a4 	adrp	x4, 37000 <signals.7908+0xf0>
TA_InvokeCommandEntryPoint():
/opt/watz-gpio/runtime-modified/product-mini/platforms/linux-trustzone/wamr_tzio/ta/main.c:168
     72c:	a94068b6 	ldp	x22, x26, [x5]
     730:	a90363f7 	stp	x23, x24, [sp, #48]
TA_RunWasm():
/opt/watz-gpio/runtime-modified/product-mini/platforms/linux-trustzone/wamr_tzio/ta/main.c:60
     734:	f00001b8 	adrp	x24, 37000 <signals.7908+0xf0>
TA_InvokeCommandEntryPoint():
/opt/watz-gpio/runtime-modified/product-mini/platforms/linux-trustzone/wamr_tzio/ta/main.c:169
     738:	f94008b4 	ldr	x20, [x5, #16]
TA_RunWasm():
/opt/watz-gpio/runtime-modified/product-mini/platforms/linux-trustzone/wamr_tzio/ta/main.c:60
     73c:	910f0315 	add	x21, x24, #0x3c0
TA_InvokeCommandEntryPoint():
/opt/watz-gpio/runtime-modified/product-mini/platforms/linux-trustzone/wamr_tzio/ta/main.c:167
     740:	a94214a6 	ldp	x6, x5, [x5, #32]
TA_RunWasm():
/opt/watz-gpio/runtime-modified/product-mini/platforms/linux-trustzone/wamr_tzio/ta/main.c:60
     744:	9101c2b5 	add	x21, x21, #0x70
     748:	a90573fb 	stp	x27, x28, [sp, #80]
/opt/watz-gpio/runtime-modified/product-mini/platforms/linux-trustzone/wamr_tzio/ta/main.c:67
     74c:	90007a9b 	adrp	x27, f50000 <ta_heap+0xeff118>
/opt/watz-gpio/runtime-modified/product-mini/platforms/linux-trustzone/wamr_tzio/ta/main.c:60
     750:	910ba084 	add	x4, x4, #0x2e8
     754:	aa1503e0 	mov	x0, x21
TA_InvokeCommandEntryPoint():
/opt/watz-gpio/runtime-modified/product-mini/platforms/linux-trustzone/wamr_tzio/ta/main.c:167
     758:	a9061be5 	stp	x5, x6, [sp, #96]
     75c:	92407f5c 	and	x28, x26, #0xffffffff
TA_RunWasm():
/opt/watz-gpio/runtime-modified/product-mini/platforms/linux-trustzone/wamr_tzio/ta/main.c:60
     760:	9400b68d 	bl	2e194 <trace_printf@plt>
/opt/watz-gpio/runtime-modified/product-mini/platforms/linux-trustzone/wamr_tzio/ta/main.c:101
     764:	9101e3f9 	add	x25, sp, #0x78
/opt/watz-gpio/runtime-modified/product-mini/platforms/linux-trustzone/wamr_tzio/ta/main.c:67
     768:	b94f6b60 	ldr	w0, [x27, #3944]
     76c:	52b00001 	mov	w1, #0x80000000            	// #-2147483648
     770:	9400b6b5 	bl	2e244 <TEE_Malloc@plt>
     774:	aa0003f7 	mov	x23, x0
/opt/watz-gpio/runtime-modified/product-mini/platforms/linux-trustzone/wamr_tzio/ta/main.c:68
     778:	52b00001 	mov	w1, #0x80000000            	// #-2147483648
     77c:	aa1c03e0 	mov	x0, x28
     780:	9400b6b1 	bl	2e244 <TEE_Malloc@plt>
/opt/watz-gpio/runtime-modified/product-mini/platforms/linux-trustzone/wamr_tzio/ta/main.c:71
     784:	aa1c03e2 	mov	x2, x28
     788:	aa1603e1 	mov	x1, x22
/opt/watz-gpio/runtime-modified/product-mini/platforms/linux-trustzone/wamr_tzio/ta/main.c:68
     78c:	aa0003f6 	mov	x22, x0
/opt/watz-gpio/runtime-modified/product-mini/platforms/linux-trustzone/wamr_tzio/ta/main.c:71
     790:	9400b6b1 	bl	2e254 <TEE_MemMove@plt>
/opt/watz-gpio/runtime-modified/product-mini/platforms/linux-trustzone/wamr_tzio/ta/main.c:78
     794:	a9461be5 	ldp	x5, x6, [sp, #96]
     798:	aa0603e0 	mov	x0, x6
     79c:	aa0503e1 	mov	x1, x5
     7a0:	97fffeda 	bl	308 <TA_SetOutputBuffer>
/opt/watz-gpio/runtime-modified/product-mini/platforms/linux-trustzone/wamr_tzio/ta/main.c:82
     7a4:	a907fff6 	stp	x22, xzr, [sp, #120]
     7a8:	b94f6b65 	ldr	w5, [x27, #3944]
     7ac:	a908fff7 	stp	x23, xzr, [sp, #136]
/opt/watz-gpio/runtime-modified/product-mini/platforms/linux-trustzone/wamr_tzio/ta/main.c:98
     7b0:	aa1503e0 	mov	x0, x21
     7b4:	52800023 	mov	w3, #0x1                   	// #1
     7b8:	52800062 	mov	w2, #0x3                   	// #3
     7bc:	52800c41 	mov	w1, #0x62                  	// #98
     7c0:	f00001a4 	adrp	x4, 37000 <signals.7908+0xf0>
     7c4:	910c8084 	add	x4, x4, #0x320
TA_InvokeCommandEntryPoint():
/opt/watz-gpio/runtime-modified/product-mini/platforms/linux-trustzone/wamr_tzio/ta/main.c:167
     7c8:	b90083fa 	str	w26, [sp, #128]
TA_RunWasm():
/opt/watz-gpio/runtime-modified/product-mini/platforms/linux-trustzone/wamr_tzio/ta/main.c:82
     7cc:	b90093e5 	str	w5, [sp, #144]
     7d0:	a909ffff 	stp	xzr, xzr, [sp, #152]
/opt/watz-gpio/runtime-modified/product-mini/platforms/linux-trustzone/wamr_tzio/ta/main.c:98
     7d4:	9400b670 	bl	2e194 <trace_printf@plt>
/opt/watz-gpio/runtime-modified/product-mini/platforms/linux-trustzone/wamr_tzio/ta/main.c:99
     7d8:	f100029f 	cmp	x20, #0x0
/opt/watz-gpio/runtime-modified/product-mini/platforms/linux-trustzone/wamr_tzio/ta/main.c:100
     7dc:	b00001c3 	adrp	x3, 39000 <__func__.8238+0xa50>
     7e0:	91194063 	add	x3, x3, #0x650
/opt/watz-gpio/runtime-modified/product-mini/platforms/linux-trustzone/wamr_tzio/ta/main.c:99
     7e4:	1a9f07e1 	cset	w1, ne  // ne = any
/opt/watz-gpio/runtime-modified/product-mini/platforms/linux-trustzone/wamr_tzio/ta/main.c:101
     7e8:	aa1903e0 	mov	x0, x25
     7ec:	11000421 	add	w1, w1, #0x1
     7f0:	9102a3e2 	add	x2, sp, #0xa8
/opt/watz-gpio/runtime-modified/product-mini/platforms/linux-trustzone/wamr_tzio/ta/main.c:100
     7f4:	a90ad3e3 	stp	x3, x20, [sp, #168]
/opt/watz-gpio/runtime-modified/product-mini/platforms/linux-trustzone/wamr_tzio/ta/main.c:101
     7f8:	97fffec6 	bl	310 <TA_InitializeWamrRuntime>
     7fc:	2a0003f4 	mov	w20, w0
/opt/watz-gpio/runtime-modified/product-mini/platforms/linux-trustzone/wamr_tzio/ta/main.c:102
     800:	35000160 	cbnz	w0, 82c <TA_InvokeCommandEntryPoint+0x18c>
/opt/watz-gpio/runtime-modified/product-mini/platforms/linux-trustzone/wamr_tzio/ta/main.c:104
     804:	f00001a4 	adrp	x4, 37000 <signals.7908+0xf0>
     808:	910d2084 	add	x4, x4, #0x348
     80c:	52800023 	mov	w3, #0x1                   	// #1
     810:	52800062 	mov	w2, #0x3                   	// #3
     814:	52800d01 	mov	w1, #0x68                  	// #104
     818:	aa1503e0 	mov	x0, x21
     81c:	9400b65e 	bl	2e194 <trace_printf@plt>
/opt/watz-gpio/runtime-modified/product-mini/platforms/linux-trustzone/wamr_tzio/ta/main.c:105
     820:	aa1903e0 	mov	x0, x25
     824:	97ffff3b 	bl	510 <TA_ExecuteWamrRuntime>
     828:	2a0003f4 	mov	w20, w0
/opt/watz-gpio/runtime-modified/product-mini/platforms/linux-trustzone/wamr_tzio/ta/main.c:145
     82c:	f00001a4 	adrp	x4, 37000 <signals.7908+0xf0>
     830:	910dc084 	add	x4, x4, #0x370
     834:	52800023 	mov	w3, #0x1                   	// #1
     838:	52800062 	mov	w2, #0x3                   	// #3
     83c:	52801221 	mov	w1, #0x91                  	// #145
     840:	910f0300 	add	x0, x24, #0x3c0
     844:	9101c000 	add	x0, x0, #0x70
     848:	9400b653 	bl	2e194 <trace_printf@plt>
/opt/watz-gpio/runtime-modified/product-mini/platforms/linux-trustzone/wamr_tzio/ta/main.c:146
     84c:	aa1903e0 	mov	x0, x25
     850:	97ffff4e 	bl	588 <TA_TearDownWamrRuntime>
/opt/watz-gpio/runtime-modified/product-mini/platforms/linux-trustzone/wamr_tzio/ta/main.c:149
     854:	aa1703e0 	mov	x0, x23
     858:	9400b697 	bl	2e2b4 <TEE_Free@plt>
/opt/watz-gpio/runtime-modified/product-mini/platforms/linux-trustzone/wamr_tzio/ta/main.c:150
     85c:	aa1603e0 	mov	x0, x22
     860:	9400b695 	bl	2e2b4 <TEE_Free@plt>
TA_InvokeCommandEntryPoint():
/opt/watz-gpio/runtime-modified/product-mini/platforms/linux-trustzone/wamr_tzio/ta/main.c:167
     864:	a9425bf5 	ldp	x21, x22, [sp, #32]
     868:	a94363f7 	ldp	x23, x24, [sp, #48]
     86c:	a9446bf9 	ldp	x25, x26, [sp, #64]
     870:	a94573fb 	ldp	x27, x28, [sp, #80]
     874:	17ffff9b 	b	6e0 <TA_InvokeCommandEntryPoint+0x40>
/opt/watz-gpio/runtime-modified/product-mini/platforms/linux-trustzone/wamr_tzio/ta/main.c:180
     878:	b94000a5 	ldr	w5, [x5]
TA_SetHeapSize():
/opt/watz-gpio/runtime-modified/product-mini/platforms/linux-trustzone/wamr_tzio/ta/main.c:49
     87c:	90007a81 	adrp	x1, f50000 <ta_heap+0xeff118>
/opt/watz-gpio/runtime-modified/product-mini/platforms/linux-trustzone/wamr_tzio/ta/main.c:50
     880:	f00001a0 	adrp	x0, 37000 <signals.7908+0xf0>
     884:	910f0000 	add	x0, x0, #0x3c0
     888:	2a0203e3 	mov	w3, w2
/opt/watz-gpio/runtime-modified/product-mini/platforms/linux-trustzone/wamr_tzio/ta/main.c:49
     88c:	b90f6825 	str	w5, [x1, #3944]
/opt/watz-gpio/runtime-modified/product-mini/platforms/linux-trustzone/wamr_tzio/ta/main.c:50
     890:	91020000 	add	x0, x0, #0x80
TA_InvokeCommandEntryPoint():
/opt/watz-gpio/runtime-modified/product-mini/platforms/linux-trustzone/wamr_tzio/ta/main.c:180
     894:	52800014 	mov	w20, #0x0                   	// #0
TA_SetHeapSize():
/opt/watz-gpio/runtime-modified/product-mini/platforms/linux-trustzone/wamr_tzio/ta/main.c:50
     898:	f00001a4 	adrp	x4, 37000 <signals.7908+0xf0>
     89c:	52800062 	mov	w2, #0x3                   	// #3
     8a0:	910e6084 	add	x4, x4, #0x398
     8a4:	52800641 	mov	w1, #0x32                  	// #50
     8a8:	9400b63b 	bl	2e194 <trace_printf@plt>
TA_InvokeCommandEntryPoint():
/opt/watz-gpio/runtime-modified/product-mini/platforms/linux-trustzone/wamr_tzio/ta/main.c:180
     8ac:	17ffff8d 	b	6e0 <TA_InvokeCommandEntryPoint+0x40>
     8b0:	a9025bf5 	stp	x21, x22, [sp, #32]
     8b4:	a90363f7 	stp	x23, x24, [sp, #48]
     8b8:	a9046bf9 	stp	x25, x26, [sp, #64]
     8bc:	a90573fb 	stp	x27, x28, [sp, #80]
/opt/watz-gpio/runtime-modified/product-mini/platforms/linux-trustzone/wamr_tzio/ta/main.c:184
     8c0:	9400b655 	bl	2e214 <__stack_chk_fail@plt>
     8c4:	00000000 	.inst	0x00000000 ; undefined

00000000000008c8 <__ta_entry>:
__ta_entry():
/opt/watz-gpio/optee_os-3.21.0/out/arm/export-ta_arm64/src/user_ta_header.c:51
     8c8:	a9bf7bfd 	stp	x29, x30, [sp, #-16]!
     8cc:	910003fd 	mov	x29, sp
/opt/watz-gpio/optee_os-3.21.0/out/arm/export-ta_arm64/src/user_ta_header.c:70
     8d0:	9400b669 	bl	2e274 <__utee_entry@plt>
/opt/watz-gpio/optee_os-3.21.0/out/arm/export-ta_arm64/src/user_ta_header.c:81
     8d4:	2a0003e0 	mov	w0, w0
     8d8:	9400b657 	bl	2e234 <_utee_return@plt>
     8dc:	d503201f 	nop

00000000000008e0 <tahead_get_trace_level>:
tahead_get_trace_level():
/opt/watz-gpio/optee_os-3.21.0/out/arm/export-ta_arm64/src/user_ta_header.c:193
     8e0:	52800080 	mov	w0, #0x4                   	// #4
     8e4:	d65f03c0 	ret

00000000000008e8 <close>:
close():
     8e8:	a9bf7bfd 	stp	x29, x30, [sp, #-16]!
     8ec:	52800023 	mov	w3, #0x1                   	// #1
     8f0:	52800022 	mov	w2, #0x1                   	// #1
     8f4:	910003fd 	mov	x29, sp
     8f8:	52800141 	mov	w1, #0xa                   	// #10
     8fc:	f00001a4 	adrp	x4, 37000 <signals.7908+0xf0>
     900:	f00001a0 	adrp	x0, 37000 <signals.7908+0xf0>
     904:	9117a084 	add	x4, x4, #0x5e8
     908:	9127e000 	add	x0, x0, #0x9f8
     90c:	9400b622 	bl	2e194 <trace_printf@plt>
     910:	12800000 	mov	w0, #0xffffffff            	// #-1
     914:	a8c17bfd 	ldp	x29, x30, [sp], #16
     918:	d65f03c0 	ret
     91c:	00000000 	.inst	0x00000000 ; undefined

0000000000000920 <closedir>:
closedir():
     920:	a9bf7bfd 	stp	x29, x30, [sp, #-16]!
     924:	52800023 	mov	w3, #0x1                   	// #1
     928:	52800022 	mov	w2, #0x1                   	// #1
     92c:	910003fd 	mov	x29, sp
     930:	52800201 	mov	w1, #0x10                  	// #16
     934:	f00001a4 	adrp	x4, 37000 <signals.7908+0xf0>
     938:	f00001a0 	adrp	x0, 37000 <signals.7908+0xf0>
     93c:	91180084 	add	x4, x4, #0x600
     940:	91280000 	add	x0, x0, #0xa00
     944:	9400b614 	bl	2e194 <trace_printf@plt>
     948:	12800000 	mov	w0, #0xffffffff            	// #-1
     94c:	a8c17bfd 	ldp	x29, x30, [sp], #16
     950:	d65f03c0 	ret
     954:	00000000 	.inst	0x00000000 ; undefined

0000000000000958 <fcntl>:
fcntl():
     958:	7100081f 	cmp	w0, #0x2
     95c:	7a43d820 	ccmp	w1, #0x3, #0x0, le
     960:	54000061 	b.ne	96c <fcntl+0x14>  // b.any
     964:	52900040 	mov	w0, #0x8002                	// #32770
     968:	d65f03c0 	ret
     96c:	a9bf7bfd 	stp	x29, x30, [sp, #-16]!
     970:	52800023 	mov	w3, #0x1                   	// #1
     974:	52800022 	mov	w2, #0x1                   	// #1
     978:	910003fd 	mov	x29, sp
     97c:	52800361 	mov	w1, #0x1b                  	// #27
     980:	f00001a4 	adrp	x4, 37000 <signals.7908+0xf0>
     984:	f00001a0 	adrp	x0, 37000 <signals.7908+0xf0>
     988:	91188084 	add	x4, x4, #0x620
     98c:	91284000 	add	x0, x0, #0xa10
     990:	9400b601 	bl	2e194 <trace_printf@plt>
     994:	12800000 	mov	w0, #0xffffffff            	// #-1
     998:	a8c17bfd 	ldp	x29, x30, [sp], #16
     99c:	d65f03c0 	ret

00000000000009a0 <fdatasync>:
fdatasync():
     9a0:	a9bf7bfd 	stp	x29, x30, [sp, #-16]!
     9a4:	52800023 	mov	w3, #0x1                   	// #1
     9a8:	52800022 	mov	w2, #0x1                   	// #1
     9ac:	910003fd 	mov	x29, sp
     9b0:	52800421 	mov	w1, #0x21                  	// #33
     9b4:	f00001a4 	adrp	x4, 37000 <signals.7908+0xf0>
     9b8:	f00001a0 	adrp	x0, 37000 <signals.7908+0xf0>
     9bc:	9118e084 	add	x4, x4, #0x638
     9c0:	91286000 	add	x0, x0, #0xa18
     9c4:	9400b5f4 	bl	2e194 <trace_printf@plt>
     9c8:	12800000 	mov	w0, #0xffffffff            	// #-1
     9cc:	a8c17bfd 	ldp	x29, x30, [sp], #16
     9d0:	d65f03c0 	ret
     9d4:	00000000 	.inst	0x00000000 ; undefined

00000000000009d8 <fdopendir>:
fdopendir():
     9d8:	a9bf7bfd 	stp	x29, x30, [sp, #-16]!
     9dc:	52800023 	mov	w3, #0x1                   	// #1
     9e0:	52800022 	mov	w2, #0x1                   	// #1
     9e4:	910003fd 	mov	x29, sp
     9e8:	528004e1 	mov	w1, #0x27                  	// #39
     9ec:	f00001a4 	adrp	x4, 37000 <signals.7908+0xf0>
     9f0:	f00001a0 	adrp	x0, 37000 <signals.7908+0xf0>
     9f4:	91196084 	add	x4, x4, #0x658
     9f8:	9128a000 	add	x0, x0, #0xa28
     9fc:	9400b5e6 	bl	2e194 <trace_printf@plt>
     a00:	d2800000 	mov	x0, #0x0                   	// #0
     a04:	a8c17bfd 	ldp	x29, x30, [sp], #16
     a08:	d65f03c0 	ret
     a0c:	00000000 	.inst	0x00000000 ; undefined

0000000000000a10 <fstat>:
fstat():
     a10:	7100081f 	cmp	w0, #0x2
     a14:	540000ac 	b.gt	a28 <fstat+0x18>
     a18:	52843202 	mov	w2, #0x2190                	// #8592
     a1c:	52800000 	mov	w0, #0x0                   	// #0
     a20:	b9001422 	str	w2, [x1, #20]
     a24:	d65f03c0 	ret
     a28:	a9bf7bfd 	stp	x29, x30, [sp, #-16]!
     a2c:	2a0003e5 	mov	w5, w0
     a30:	52800023 	mov	w3, #0x1                   	// #1
     a34:	910003fd 	mov	x29, sp
     a38:	52800022 	mov	w2, #0x1                   	// #1
     a3c:	52800661 	mov	w1, #0x33                  	// #51
     a40:	f00001a4 	adrp	x4, 37000 <signals.7908+0xf0>
     a44:	f00001a0 	adrp	x0, 37000 <signals.7908+0xf0>
     a48:	9119e084 	add	x4, x4, #0x678
     a4c:	9128e000 	add	x0, x0, #0xa38
     a50:	9400b5d1 	bl	2e194 <trace_printf@plt>
     a54:	12800000 	mov	w0, #0xffffffff            	// #-1
     a58:	a8c17bfd 	ldp	x29, x30, [sp], #16
     a5c:	d65f03c0 	ret

0000000000000a60 <fstatat>:
fstatat():
     a60:	a9bf7bfd 	stp	x29, x30, [sp, #-16]!
     a64:	52800023 	mov	w3, #0x1                   	// #1
     a68:	52800022 	mov	w2, #0x1                   	// #1
     a6c:	910003fd 	mov	x29, sp
     a70:	52800721 	mov	w1, #0x39                  	// #57
     a74:	f00001a4 	adrp	x4, 37000 <signals.7908+0xf0>
     a78:	f00001a0 	adrp	x0, 37000 <signals.7908+0xf0>
     a7c:	911a6084 	add	x4, x4, #0x698
     a80:	91290000 	add	x0, x0, #0xa40
     a84:	9400b5c4 	bl	2e194 <trace_printf@plt>
     a88:	12800000 	mov	w0, #0xffffffff            	// #-1
     a8c:	a8c17bfd 	ldp	x29, x30, [sp], #16
     a90:	d65f03c0 	ret
     a94:	00000000 	.inst	0x00000000 ; undefined

0000000000000a98 <fsync>:
fsync():
     a98:	a9bf7bfd 	stp	x29, x30, [sp, #-16]!
     a9c:	52800023 	mov	w3, #0x1                   	// #1
     aa0:	52800022 	mov	w2, #0x1                   	// #1
     aa4:	910003fd 	mov	x29, sp
     aa8:	528007e1 	mov	w1, #0x3f                  	// #63
     aac:	f00001a4 	adrp	x4, 37000 <signals.7908+0xf0>
     ab0:	f00001a0 	adrp	x0, 37000 <signals.7908+0xf0>
     ab4:	911ae084 	add	x4, x4, #0x6b8
     ab8:	91292000 	add	x0, x0, #0xa48
     abc:	9400b5b6 	bl	2e194 <trace_printf@plt>
     ac0:	12800000 	mov	w0, #0xffffffff            	// #-1
     ac4:	a8c17bfd 	ldp	x29, x30, [sp], #16
     ac8:	d65f03c0 	ret
     acc:	00000000 	.inst	0x00000000 ; undefined

0000000000000ad0 <ftruncate>:
ftruncate():
     ad0:	a9bf7bfd 	stp	x29, x30, [sp, #-16]!
     ad4:	52800023 	mov	w3, #0x1                   	// #1
     ad8:	52800022 	mov	w2, #0x1                   	// #1
     adc:	910003fd 	mov	x29, sp
     ae0:	528008a1 	mov	w1, #0x45                  	// #69
     ae4:	f00001a4 	adrp	x4, 37000 <signals.7908+0xf0>
     ae8:	f00001a0 	adrp	x0, 37000 <signals.7908+0xf0>
     aec:	911b4084 	add	x4, x4, #0x6d0
     af0:	91294000 	add	x0, x0, #0xa50
     af4:	9400b5a8 	bl	2e194 <trace_printf@plt>
     af8:	12800000 	mov	w0, #0xffffffff            	// #-1
     afc:	a8c17bfd 	ldp	x29, x30, [sp], #16
     b00:	d65f03c0 	ret
     b04:	00000000 	.inst	0x00000000 ; undefined

0000000000000b08 <getrandom>:
getrandom():
     b08:	a9bf7bfd 	stp	x29, x30, [sp, #-16]!
     b0c:	52800023 	mov	w3, #0x1                   	// #1
     b10:	52800022 	mov	w2, #0x1                   	// #1
     b14:	910003fd 	mov	x29, sp
     b18:	52800961 	mov	w1, #0x4b                  	// #75
     b1c:	f00001a4 	adrp	x4, 37000 <signals.7908+0xf0>
     b20:	f00001a0 	adrp	x0, 37000 <signals.7908+0xf0>
     b24:	911bc084 	add	x4, x4, #0x6f0
     b28:	91298000 	add	x0, x0, #0xa60
     b2c:	9400b59a 	bl	2e194 <trace_printf@plt>
     b30:	92800000 	mov	x0, #0xffffffffffffffff    	// #-1
     b34:	a8c17bfd 	ldp	x29, x30, [sp], #16
     b38:	d65f03c0 	ret
     b3c:	00000000 	.inst	0x00000000 ; undefined

0000000000000b40 <ioctl>:
ioctl():
     b40:	a9bf7bfd 	stp	x29, x30, [sp, #-16]!
     b44:	52800023 	mov	w3, #0x1                   	// #1
     b48:	52800022 	mov	w2, #0x1                   	// #1
     b4c:	910003fd 	mov	x29, sp
     b50:	52800a21 	mov	w1, #0x51                  	// #81
     b54:	f00001a4 	adrp	x4, 37000 <signals.7908+0xf0>
     b58:	f00001a0 	adrp	x0, 37000 <signals.7908+0xf0>
     b5c:	911c4084 	add	x4, x4, #0x710
     b60:	9129c000 	add	x0, x0, #0xa70
     b64:	9400b58c 	bl	2e194 <trace_printf@plt>
     b68:	12800000 	mov	w0, #0xffffffff            	// #-1
     b6c:	a8c17bfd 	ldp	x29, x30, [sp], #16
     b70:	d65f03c0 	ret
     b74:	00000000 	.inst	0x00000000 ; undefined

0000000000000b78 <isatty>:
isatty():
     b78:	a9bf7bfd 	stp	x29, x30, [sp, #-16]!
     b7c:	52800023 	mov	w3, #0x1                   	// #1
     b80:	52800022 	mov	w2, #0x1                   	// #1
     b84:	910003fd 	mov	x29, sp
     b88:	52800ae1 	mov	w1, #0x57                  	// #87
     b8c:	f00001a4 	adrp	x4, 37000 <signals.7908+0xf0>
     b90:	f00001a0 	adrp	x0, 37000 <signals.7908+0xf0>
     b94:	911ca084 	add	x4, x4, #0x728
     b98:	9129e000 	add	x0, x0, #0xa78
     b9c:	9400b57e 	bl	2e194 <trace_printf@plt>
     ba0:	12800000 	mov	w0, #0xffffffff            	// #-1
     ba4:	a8c17bfd 	ldp	x29, x30, [sp], #16
     ba8:	d65f03c0 	ret
     bac:	00000000 	.inst	0x00000000 ; undefined

0000000000000bb0 <linkat>:
linkat():
     bb0:	a9bf7bfd 	stp	x29, x30, [sp, #-16]!
     bb4:	52800023 	mov	w3, #0x1                   	// #1
     bb8:	52800022 	mov	w2, #0x1                   	// #1
     bbc:	910003fd 	mov	x29, sp
     bc0:	52800ba1 	mov	w1, #0x5d                  	// #93
     bc4:	f00001a4 	adrp	x4, 37000 <signals.7908+0xf0>
     bc8:	f00001a0 	adrp	x0, 37000 <signals.7908+0xf0>
     bcc:	911d2084 	add	x4, x4, #0x748
     bd0:	912a0000 	add	x0, x0, #0xa80
     bd4:	9400b570 	bl	2e194 <trace_printf@plt>
     bd8:	12800000 	mov	w0, #0xffffffff            	// #-1
     bdc:	a8c17bfd 	ldp	x29, x30, [sp], #16
     be0:	d65f03c0 	ret
     be4:	00000000 	.inst	0x00000000 ; undefined

0000000000000be8 <lseek>:
lseek():
     be8:	a9bf7bfd 	stp	x29, x30, [sp, #-16]!
     bec:	52800023 	mov	w3, #0x1                   	// #1
     bf0:	52800022 	mov	w2, #0x1                   	// #1
     bf4:	910003fd 	mov	x29, sp
     bf8:	52800c61 	mov	w1, #0x63                  	// #99
     bfc:	f00001a4 	adrp	x4, 37000 <signals.7908+0xf0>
     c00:	f00001a0 	adrp	x0, 37000 <signals.7908+0xf0>
     c04:	911da084 	add	x4, x4, #0x768
     c08:	912a2000 	add	x0, x0, #0xa88
     c0c:	9400b562 	bl	2e194 <trace_printf@plt>
     c10:	92800000 	mov	x0, #0xffffffffffffffff    	// #-1
     c14:	a8c17bfd 	ldp	x29, x30, [sp], #16
     c18:	d65f03c0 	ret
     c1c:	00000000 	.inst	0x00000000 ; undefined

0000000000000c20 <mkdirat>:
mkdirat():
     c20:	a9bf7bfd 	stp	x29, x30, [sp, #-16]!
     c24:	52800023 	mov	w3, #0x1                   	// #1
     c28:	52800022 	mov	w2, #0x1                   	// #1
     c2c:	910003fd 	mov	x29, sp
     c30:	52800d21 	mov	w1, #0x69                  	// #105
     c34:	f00001a4 	adrp	x4, 37000 <signals.7908+0xf0>
     c38:	f00001a0 	adrp	x0, 37000 <signals.7908+0xf0>
     c3c:	911e0084 	add	x4, x4, #0x780
     c40:	912a4000 	add	x0, x0, #0xa90
     c44:	9400b554 	bl	2e194 <trace_printf@plt>
     c48:	12800000 	mov	w0, #0xffffffff            	// #-1
     c4c:	a8c17bfd 	ldp	x29, x30, [sp], #16
     c50:	d65f03c0 	ret
     c54:	00000000 	.inst	0x00000000 ; undefined

0000000000000c58 <open>:
open():
     c58:	a9bf7bfd 	stp	x29, x30, [sp, #-16]!
     c5c:	52800023 	mov	w3, #0x1                   	// #1
     c60:	52800022 	mov	w2, #0x1                   	// #1
     c64:	910003fd 	mov	x29, sp
     c68:	52800de1 	mov	w1, #0x6f                  	// #111
     c6c:	f00001a4 	adrp	x4, 37000 <signals.7908+0xf0>
     c70:	f00001a0 	adrp	x0, 37000 <signals.7908+0xf0>
     c74:	911e8084 	add	x4, x4, #0x7a0
     c78:	912a6000 	add	x0, x0, #0xa98
     c7c:	9400b546 	bl	2e194 <trace_printf@plt>
     c80:	12800000 	mov	w0, #0xffffffff            	// #-1
     c84:	a8c17bfd 	ldp	x29, x30, [sp], #16
     c88:	d65f03c0 	ret
     c8c:	00000000 	.inst	0x00000000 ; undefined

0000000000000c90 <openat>:
openat():
     c90:	a9bf7bfd 	stp	x29, x30, [sp, #-16]!
     c94:	52800023 	mov	w3, #0x1                   	// #1
     c98:	52800022 	mov	w2, #0x1                   	// #1
     c9c:	910003fd 	mov	x29, sp
     ca0:	52800ea1 	mov	w1, #0x75                  	// #117
     ca4:	f00001a4 	adrp	x4, 37000 <signals.7908+0xf0>
     ca8:	f00001a0 	adrp	x0, 37000 <signals.7908+0xf0>
     cac:	911ee084 	add	x4, x4, #0x7b8
     cb0:	912a8000 	add	x0, x0, #0xaa0
     cb4:	9400b538 	bl	2e194 <trace_printf@plt>
     cb8:	12800000 	mov	w0, #0xffffffff            	// #-1
     cbc:	a8c17bfd 	ldp	x29, x30, [sp], #16
     cc0:	d65f03c0 	ret
     cc4:	00000000 	.inst	0x00000000 ; undefined

0000000000000cc8 <poll>:
poll():
     cc8:	a9bf7bfd 	stp	x29, x30, [sp, #-16]!
     ccc:	52800023 	mov	w3, #0x1                   	// #1
     cd0:	52800022 	mov	w2, #0x1                   	// #1
     cd4:	910003fd 	mov	x29, sp
     cd8:	52800f61 	mov	w1, #0x7b                  	// #123
     cdc:	f00001a4 	adrp	x4, 37000 <signals.7908+0xf0>
     ce0:	f00001a0 	adrp	x0, 37000 <signals.7908+0xf0>
     ce4:	911f6084 	add	x4, x4, #0x7d8
     ce8:	912aa000 	add	x0, x0, #0xaa8
     cec:	9400b52a 	bl	2e194 <trace_printf@plt>
     cf0:	12800000 	mov	w0, #0xffffffff            	// #-1
     cf4:	a8c17bfd 	ldp	x29, x30, [sp], #16
     cf8:	d65f03c0 	ret
     cfc:	00000000 	.inst	0x00000000 ; undefined

0000000000000d00 <posix_fallocate>:
posix_fallocate():
     d00:	a9bf7bfd 	stp	x29, x30, [sp, #-16]!
     d04:	52800023 	mov	w3, #0x1                   	// #1
     d08:	52800022 	mov	w2, #0x1                   	// #1
     d0c:	910003fd 	mov	x29, sp
     d10:	52801021 	mov	w1, #0x81                  	// #129
     d14:	f00001a4 	adrp	x4, 37000 <signals.7908+0xf0>
     d18:	f00001a0 	adrp	x0, 37000 <signals.7908+0xf0>
     d1c:	911fc084 	add	x4, x4, #0x7f0
     d20:	912ac000 	add	x0, x0, #0xab0
     d24:	9400b51c 	bl	2e194 <trace_printf@plt>
     d28:	12800000 	mov	w0, #0xffffffff            	// #-1
     d2c:	a8c17bfd 	ldp	x29, x30, [sp], #16
     d30:	d65f03c0 	ret
     d34:	00000000 	.inst	0x00000000 ; undefined

0000000000000d38 <preadv>:
preadv():
     d38:	a9bf7bfd 	stp	x29, x30, [sp, #-16]!
     d3c:	52800023 	mov	w3, #0x1                   	// #1
     d40:	52800022 	mov	w2, #0x1                   	// #1
     d44:	910003fd 	mov	x29, sp
     d48:	528010e1 	mov	w1, #0x87                  	// #135
     d4c:	f00001a4 	adrp	x4, 37000 <signals.7908+0xf0>
     d50:	f00001a0 	adrp	x0, 37000 <signals.7908+0xf0>
     d54:	91206084 	add	x4, x4, #0x818
     d58:	912b0000 	add	x0, x0, #0xac0
     d5c:	9400b50e 	bl	2e194 <trace_printf@plt>
     d60:	92800000 	mov	x0, #0xffffffffffffffff    	// #-1
     d64:	a8c17bfd 	ldp	x29, x30, [sp], #16
     d68:	d65f03c0 	ret
     d6c:	00000000 	.inst	0x00000000 ; undefined

0000000000000d70 <pwritev>:
pwritev():
     d70:	a9bf7bfd 	stp	x29, x30, [sp, #-16]!
     d74:	52800023 	mov	w3, #0x1                   	// #1
     d78:	52800022 	mov	w2, #0x1                   	// #1
     d7c:	910003fd 	mov	x29, sp
     d80:	528011a1 	mov	w1, #0x8d                  	// #141
     d84:	f00001a4 	adrp	x4, 37000 <signals.7908+0xf0>
     d88:	f00001a0 	adrp	x0, 37000 <signals.7908+0xf0>
     d8c:	9120e084 	add	x4, x4, #0x838
     d90:	912b2000 	add	x0, x0, #0xac8
     d94:	9400b500 	bl	2e194 <trace_printf@plt>
     d98:	92800000 	mov	x0, #0xffffffffffffffff    	// #-1
     d9c:	a8c17bfd 	ldp	x29, x30, [sp], #16
     da0:	d65f03c0 	ret
     da4:	00000000 	.inst	0x00000000 ; undefined

0000000000000da8 <readdir>:
readdir():
     da8:	a9bf7bfd 	stp	x29, x30, [sp, #-16]!
     dac:	52800023 	mov	w3, #0x1                   	// #1
     db0:	52800022 	mov	w2, #0x1                   	// #1
     db4:	910003fd 	mov	x29, sp
     db8:	52801261 	mov	w1, #0x93                  	// #147
     dbc:	f00001a4 	adrp	x4, 37000 <signals.7908+0xf0>
     dc0:	f00001a0 	adrp	x0, 37000 <signals.7908+0xf0>
     dc4:	91216084 	add	x4, x4, #0x858
     dc8:	912b4000 	add	x0, x0, #0xad0
     dcc:	9400b4f2 	bl	2e194 <trace_printf@plt>
     dd0:	d2800000 	mov	x0, #0x0                   	// #0
     dd4:	a8c17bfd 	ldp	x29, x30, [sp], #16
     dd8:	d65f03c0 	ret
     ddc:	00000000 	.inst	0x00000000 ; undefined

0000000000000de0 <readlinkat>:
readlinkat():
     de0:	a9bf7bfd 	stp	x29, x30, [sp, #-16]!
     de4:	52800023 	mov	w3, #0x1                   	// #1
     de8:	52800022 	mov	w2, #0x1                   	// #1
     dec:	910003fd 	mov	x29, sp
     df0:	52801321 	mov	w1, #0x99                  	// #153
     df4:	f00001a4 	adrp	x4, 37000 <signals.7908+0xf0>
     df8:	f00001a0 	adrp	x0, 37000 <signals.7908+0xf0>
     dfc:	9121e084 	add	x4, x4, #0x878
     e00:	912b6000 	add	x0, x0, #0xad8
     e04:	9400b4e4 	bl	2e194 <trace_printf@plt>
     e08:	92800000 	mov	x0, #0xffffffffffffffff    	// #-1
     e0c:	a8c17bfd 	ldp	x29, x30, [sp], #16
     e10:	d65f03c0 	ret
     e14:	00000000 	.inst	0x00000000 ; undefined

0000000000000e18 <readv>:
readv():
     e18:	a9bf7bfd 	stp	x29, x30, [sp, #-16]!
     e1c:	52800023 	mov	w3, #0x1                   	// #1
     e20:	52800022 	mov	w2, #0x1                   	// #1
     e24:	910003fd 	mov	x29, sp
     e28:	528013e1 	mov	w1, #0x9f                  	// #159
     e2c:	f00001a4 	adrp	x4, 37000 <signals.7908+0xf0>
     e30:	f00001a0 	adrp	x0, 37000 <signals.7908+0xf0>
     e34:	91226084 	add	x4, x4, #0x898
     e38:	912ba000 	add	x0, x0, #0xae8
     e3c:	9400b4d6 	bl	2e194 <trace_printf@plt>
     e40:	92800000 	mov	x0, #0xffffffffffffffff    	// #-1
     e44:	a8c17bfd 	ldp	x29, x30, [sp], #16
     e48:	d65f03c0 	ret
     e4c:	00000000 	.inst	0x00000000 ; undefined

0000000000000e50 <realpath>:
realpath():
     e50:	a9bf7bfd 	stp	x29, x30, [sp, #-16]!
     e54:	52800023 	mov	w3, #0x1                   	// #1
     e58:	52800022 	mov	w2, #0x1                   	// #1
     e5c:	910003fd 	mov	x29, sp
     e60:	528014a1 	mov	w1, #0xa5                  	// #165
     e64:	f00001a4 	adrp	x4, 37000 <signals.7908+0xf0>
     e68:	f00001a0 	adrp	x0, 37000 <signals.7908+0xf0>
     e6c:	9122c084 	add	x4, x4, #0x8b0
     e70:	912bc000 	add	x0, x0, #0xaf0
     e74:	9400b4c8 	bl	2e194 <trace_printf@plt>
     e78:	d2800000 	mov	x0, #0x0                   	// #0
     e7c:	a8c17bfd 	ldp	x29, x30, [sp], #16
     e80:	d65f03c0 	ret
     e84:	00000000 	.inst	0x00000000 ; undefined

0000000000000e88 <renameat>:
renameat():
     e88:	a9bf7bfd 	stp	x29, x30, [sp, #-16]!
     e8c:	52800023 	mov	w3, #0x1                   	// #1
     e90:	52800022 	mov	w2, #0x1                   	// #1
     e94:	910003fd 	mov	x29, sp
     e98:	52801561 	mov	w1, #0xab                  	// #171
     e9c:	f00001a4 	adrp	x4, 37000 <signals.7908+0xf0>
     ea0:	f00001a0 	adrp	x0, 37000 <signals.7908+0xf0>
     ea4:	91234084 	add	x4, x4, #0x8d0
     ea8:	912c0000 	add	x0, x0, #0xb00
     eac:	9400b4ba 	bl	2e194 <trace_printf@plt>
     eb0:	12800000 	mov	w0, #0xffffffff            	// #-1
     eb4:	a8c17bfd 	ldp	x29, x30, [sp], #16
     eb8:	d65f03c0 	ret
     ebc:	00000000 	.inst	0x00000000 ; undefined

0000000000000ec0 <rewinddir>:
rewinddir():
     ec0:	f00001a4 	adrp	x4, 37000 <signals.7908+0xf0>
     ec4:	f00001a0 	adrp	x0, 37000 <signals.7908+0xf0>
     ec8:	9123c084 	add	x4, x4, #0x8f0
     ecc:	912c4000 	add	x0, x0, #0xb10
     ed0:	52800023 	mov	w3, #0x1                   	// #1
     ed4:	52800022 	mov	w2, #0x1                   	// #1
     ed8:	52801621 	mov	w1, #0xb1                  	// #177
     edc:	1400b4ae 	b	2e194 <trace_printf@plt>

0000000000000ee0 <sched_yield>:
sched_yield():
     ee0:	a9bf7bfd 	stp	x29, x30, [sp, #-16]!
     ee4:	52800023 	mov	w3, #0x1                   	// #1
     ee8:	52800022 	mov	w2, #0x1                   	// #1
     eec:	910003fd 	mov	x29, sp
     ef0:	528016c1 	mov	w1, #0xb6                  	// #182
     ef4:	f00001a4 	adrp	x4, 37000 <signals.7908+0xf0>
     ef8:	f00001a0 	adrp	x0, 37000 <signals.7908+0xf0>
     efc:	91244084 	add	x4, x4, #0x910
     f00:	912c8000 	add	x0, x0, #0xb20
     f04:	9400b4a4 	bl	2e194 <trace_printf@plt>
     f08:	12800000 	mov	w0, #0xffffffff            	// #-1
     f0c:	a8c17bfd 	ldp	x29, x30, [sp], #16
     f10:	d65f03c0 	ret
     f14:	00000000 	.inst	0x00000000 ; undefined

0000000000000f18 <seekdir>:
seekdir():
     f18:	f00001a4 	adrp	x4, 37000 <signals.7908+0xf0>
     f1c:	f00001a0 	adrp	x0, 37000 <signals.7908+0xf0>
     f20:	9124c084 	add	x4, x4, #0x930
     f24:	912cc000 	add	x0, x0, #0xb30
     f28:	52800023 	mov	w3, #0x1                   	// #1
     f2c:	52800022 	mov	w2, #0x1                   	// #1
     f30:	52801781 	mov	w1, #0xbc                  	// #188
     f34:	1400b498 	b	2e194 <trace_printf@plt>

0000000000000f38 <symlinkat>:
symlinkat():
     f38:	a9bf7bfd 	stp	x29, x30, [sp, #-16]!
     f3c:	52800023 	mov	w3, #0x1                   	// #1
     f40:	52800022 	mov	w2, #0x1                   	// #1
     f44:	910003fd 	mov	x29, sp
     f48:	52801821 	mov	w1, #0xc1                  	// #193
     f4c:	f00001a4 	adrp	x4, 37000 <signals.7908+0xf0>
     f50:	f00001a0 	adrp	x0, 37000 <signals.7908+0xf0>
     f54:	91254084 	add	x4, x4, #0x950
     f58:	912ce000 	add	x0, x0, #0xb38
     f5c:	9400b48e 	bl	2e194 <trace_printf@plt>
     f60:	12800000 	mov	w0, #0xffffffff            	// #-1
     f64:	a8c17bfd 	ldp	x29, x30, [sp], #16
     f68:	d65f03c0 	ret
     f6c:	00000000 	.inst	0x00000000 ; undefined

0000000000000f70 <telldir>:
telldir():
     f70:	a9bf7bfd 	stp	x29, x30, [sp, #-16]!
     f74:	52800023 	mov	w3, #0x1                   	// #1
     f78:	52800022 	mov	w2, #0x1                   	// #1
     f7c:	910003fd 	mov	x29, sp
     f80:	528018e1 	mov	w1, #0xc7                  	// #199
     f84:	f00001a4 	adrp	x4, 37000 <signals.7908+0xf0>
     f88:	f00001a0 	adrp	x0, 37000 <signals.7908+0xf0>
     f8c:	9125c084 	add	x4, x4, #0x970
     f90:	912d2000 	add	x0, x0, #0xb48
     f94:	9400b480 	bl	2e194 <trace_printf@plt>
     f98:	92800000 	mov	x0, #0xffffffffffffffff    	// #-1
     f9c:	a8c17bfd 	ldp	x29, x30, [sp], #16
     fa0:	d65f03c0 	ret
     fa4:	00000000 	.inst	0x00000000 ; undefined

0000000000000fa8 <unlinkat>:
unlinkat():
     fa8:	a9bf7bfd 	stp	x29, x30, [sp, #-16]!
     fac:	52800023 	mov	w3, #0x1                   	// #1
     fb0:	52800022 	mov	w2, #0x1                   	// #1
     fb4:	910003fd 	mov	x29, sp
     fb8:	528019a1 	mov	w1, #0xcd                  	// #205
     fbc:	f00001a4 	adrp	x4, 37000 <signals.7908+0xf0>
     fc0:	f00001a0 	adrp	x0, 37000 <signals.7908+0xf0>
     fc4:	91264084 	add	x4, x4, #0x990
     fc8:	912d4000 	add	x0, x0, #0xb50
     fcc:	9400b472 	bl	2e194 <trace_printf@plt>
     fd0:	12800000 	mov	w0, #0xffffffff            	// #-1
     fd4:	a8c17bfd 	ldp	x29, x30, [sp], #16
     fd8:	d65f03c0 	ret
     fdc:	00000000 	.inst	0x00000000 ; undefined

0000000000000fe0 <writev>:
writev():
     fe0:	a9bc7bfd 	stp	x29, x30, [sp, #-64]!
     fe4:	51000400 	sub	w0, w0, #0x1
     fe8:	7100041f 	cmp	w0, #0x1
     fec:	910003fd 	mov	x29, sp
     ff0:	a9025bf5 	stp	x21, x22, [sp, #32]
     ff4:	54000c88 	b.hi	1184 <writev+0x1a4>  // b.pmore
     ff8:	a90153f3 	stp	x19, x20, [sp, #16]
     ffc:	7100005f 	cmp	w2, #0x0
    1000:	a90363f7 	stp	x23, x24, [sp, #48]
    1004:	54000aed 	b.le	1160 <writev+0x180>
    1008:	51000455 	sub	w21, w2, #0x1
    100c:	aa0103f6 	mov	x22, x1
    1010:	91002033 	add	x19, x1, #0x8
    1014:	71000ebf 	cmp	w21, #0x3
    1018:	54000b09 	b.ls	1178 <writev+0x198>  // b.plast
    101c:	53017ea1 	lsr	w1, w21, #1
    1020:	52800403 	mov	w3, #0x20                  	// #32
    1024:	4f000400 	movi	v0.4s, #0x0
    1028:	aa1303e0 	mov	x0, x19
    102c:	9ba34c21 	umaddl	x1, w1, w3, x19
    1030:	4cdf8c02 	ld2	{v2.2d, v3.2d}, [x0], #32
    1034:	4ee28400 	add	v0.2d, v0.2d, v2.2d
    1038:	eb01001f 	cmp	x0, x1
    103c:	54ffffa1 	b.ne	1030 <writev+0x50>  // b.any
    1040:	5ef1b800 	addp	d0, v0.2d
    1044:	121f7aa0 	and	w0, w21, #0xfffffffe
    1048:	4e083c14 	mov	x20, v0.d[0]
    104c:	8b20d2c1 	add	x1, x22, w0, sxtw #4
    1050:	11000403 	add	w3, w0, #0x1
    1054:	6b03005f 	cmp	w2, w3
    1058:	f9400423 	ldr	x3, [x1, #8]
    105c:	8b030294 	add	x20, x20, x3
    1060:	540001ad 	b.le	1094 <writev+0xb4>
    1064:	f9400c23 	ldr	x3, [x1, #24]
    1068:	11000804 	add	w4, w0, #0x2
    106c:	6b04005f 	cmp	w2, w4
    1070:	8b030294 	add	x20, x20, x3
    1074:	5400010d 	b.le	1094 <writev+0xb4>
    1078:	f9401423 	ldr	x3, [x1, #40]
    107c:	11000c00 	add	w0, w0, #0x3
    1080:	6b00005f 	cmp	w2, w0
    1084:	8b030294 	add	x20, x20, x3
    1088:	5400006d 	b.le	1094 <writev+0xb4>
    108c:	f9401c20 	ldr	x0, [x1, #56]
    1090:	8b000294 	add	x20, x20, x0
    1094:	910062d6 	add	x22, x22, #0x18
    1098:	2a1403e0 	mov	w0, w20
    109c:	8b3552d5 	add	x21, x22, w21, uxtw #4
    10a0:	94000054 	bl	11f0 <os_malloc>
    10a4:	aa0003f7 	mov	x23, x0
    10a8:	aa0003e3 	mov	x3, x0
    10ac:	d503201f 	nop
    10b0:	a97f8a61 	ldp	x1, x2, [x19, #-8]
    10b4:	aa0303e0 	mov	x0, x3
    10b8:	9400b43b 	bl	2e1a4 <memcpy@plt>
    10bc:	f8410661 	ldr	x1, [x19], #16
    10c0:	8b010003 	add	x3, x0, x1
    10c4:	eb15027f 	cmp	x19, x21
    10c8:	54ffff41 	b.ne	10b0 <writev+0xd0>  // b.any
    10cc:	aa1403f6 	mov	x22, x20
    10d0:	f0007a75 	adrp	x21, f50000 <ta_heap+0xeff118>
    10d4:	aa1703e2 	mov	x2, x23
    10d8:	aa1403e1 	mov	x1, x20
    10dc:	d00001a0 	adrp	x0, 37000 <signals.7908+0xf0>
    10e0:	9126c000 	add	x0, x0, #0x9b0
    10e4:	9400004b 	bl	1210 <os_printf>
    10e8:	f94782b3 	ldr	x19, [x21, #3840]
    10ec:	eb14027f 	cmp	x19, x20
    10f0:	54000228 	b.hi	1134 <writev+0x154>  // b.pmore
    10f4:	d00001a4 	adrp	x4, 37000 <signals.7908+0xf0>
    10f8:	d00001a0 	adrp	x0, 37000 <signals.7908+0xf0>
    10fc:	9126e084 	add	x4, x4, #0x9b8
    1100:	912d8000 	add	x0, x0, #0xb60
    1104:	52800023 	mov	w3, #0x1                   	// #1
    1108:	52800022 	mov	w2, #0x1                   	// #1
    110c:	52801de1 	mov	w1, #0xef                  	// #239
    1110:	9400b421 	bl	2e194 <trace_printf@plt>
    1114:	aa1703e0 	mov	x0, x23
    1118:	9400003c 	bl	1208 <os_free>
    111c:	a94153f3 	ldp	x19, x20, [sp, #16]
    1120:	a94363f7 	ldp	x23, x24, [sp, #48]
    1124:	aa1603e0 	mov	x0, x22
    1128:	a9425bf5 	ldp	x21, x22, [sp, #32]
    112c:	a8c47bfd 	ldp	x29, x30, [sp], #64
    1130:	d65f03c0 	ret
    1134:	f0007a78 	adrp	x24, f50000 <ta_heap+0xeff118>
    1138:	aa1403e2 	mov	x2, x20
    113c:	aa1703e1 	mov	x1, x23
    1140:	f9477f03 	ldr	x3, [x24, #3832]
    1144:	aa0303e0 	mov	x0, x3
    1148:	9400b417 	bl	2e1a4 <memcpy@plt>
    114c:	8b140003 	add	x3, x0, x20
    1150:	cb140274 	sub	x20, x19, x20
    1154:	f9077f03 	str	x3, [x24, #3832]
    1158:	f90782b4 	str	x20, [x21, #3840]
    115c:	17ffffee 	b	1114 <writev+0x134>
    1160:	52800000 	mov	w0, #0x0                   	// #0
    1164:	d2800016 	mov	x22, #0x0                   	// #0
    1168:	94000022 	bl	11f0 <os_malloc>
    116c:	d2800014 	mov	x20, #0x0                   	// #0
    1170:	aa0003f7 	mov	x23, x0
    1174:	17ffffd7 	b	10d0 <writev+0xf0>
    1178:	d2800014 	mov	x20, #0x0                   	// #0
    117c:	52800000 	mov	w0, #0x0                   	// #0
    1180:	17ffffb3 	b	104c <writev+0x6c>
    1184:	d00001a4 	adrp	x4, 37000 <signals.7908+0xf0>
    1188:	d00001a0 	adrp	x0, 37000 <signals.7908+0xf0>
    118c:	91276084 	add	x4, x4, #0x9d8
    1190:	912d8000 	add	x0, x0, #0xb60
    1194:	52800023 	mov	w3, #0x1                   	// #1
    1198:	52800022 	mov	w2, #0x1                   	// #1
    119c:	52801ee1 	mov	w1, #0xf7                  	// #247
    11a0:	92800016 	mov	x22, #0xffffffffffffffff    	// #-1
    11a4:	9400b3fc 	bl	2e194 <trace_printf@plt>
    11a8:	17ffffdf 	b	1124 <writev+0x144>
    11ac:	00000000 	.inst	0x00000000 ; undefined

00000000000011b0 <vedliot_set_output_buffer>:
vedliot_set_output_buffer():
    11b0:	f0007a62 	adrp	x2, f50000 <ta_heap+0xeff118>
    11b4:	f0007a63 	adrp	x3, f50000 <ta_heap+0xeff118>
    11b8:	2a0103e1 	mov	w1, w1
    11bc:	f9077c60 	str	x0, [x3, #3832]
    11c0:	f9078041 	str	x1, [x2, #3840]
    11c4:	d65f03c0 	ret

00000000000011c8 <tzio_set_output_buffer>:
tzio_set_output_buffer():
    11c8:	f0007a63 	adrp	x3, f50000 <ta_heap+0xeff118>
    11cc:	f0007a62 	adrp	x2, f50000 <ta_heap+0xeff118>
    11d0:	f9077c60 	str	x0, [x3, #3832]
    11d4:	f9078041 	str	x1, [x2, #3840]
    11d8:	d65f03c0 	ret
    11dc:	00000000 	.inst	0x00000000 ; undefined

00000000000011e0 <bh_platform_init>:
bh_platform_init():
    11e0:	52800000 	mov	w0, #0x0                   	// #0
    11e4:	d65f03c0 	ret

00000000000011e8 <bh_platform_destroy>:
bh_platform_destroy():
    11e8:	d65f03c0 	ret
    11ec:	00000000 	.inst	0x00000000 ; undefined

00000000000011f0 <os_malloc>:
os_malloc():
    11f0:	2a0003e0 	mov	w0, w0
    11f4:	52b00001 	mov	w1, #0x80000000            	// #-2147483648
    11f8:	1400b413 	b	2e244 <TEE_Malloc@plt>
    11fc:	00000000 	.inst	0x00000000 ; undefined

0000000000001200 <os_realloc>:
os_realloc():
    1200:	2a0103e1 	mov	w1, w1
    1204:	1400b3d4 	b	2e154 <TEE_Realloc@plt>

0000000000001208 <os_free>:
os_free():
    1208:	1400b42b 	b	2e2b4 <TEE_Free@plt>
    120c:	00000000 	.inst	0x00000000 ; undefined

0000000000001210 <os_printf>:
os_printf():
    1210:	a9ae7bfd 	stp	x29, x30, [sp, #-288]!
    1214:	128006e9 	mov	w9, #0xffffffc8            	// #-56
    1218:	12800fe8 	mov	w8, #0xffffff80            	// #-128
    121c:	910003fd 	mov	x29, sp
    1220:	910383eb 	add	x11, sp, #0xe0
    1224:	910483ea 	add	x10, sp, #0x120
    1228:	a9042bea 	stp	x10, x10, [sp, #64]
    122c:	aa0003ea 	mov	x10, x0
    1230:	f9002beb 	str	x11, [sp, #80]
    1234:	290b23e9 	stp	w9, w8, [sp, #88]
    1238:	a94437ec 	ldp	x12, x13, [sp, #64]
    123c:	f9000bf3 	str	x19, [sp, #16]
    1240:	a94527e8 	ldp	x8, x9, [sp, #80]
    1244:	f00001f3 	adrp	x19, 40000 <ta_props+0x100>
    1248:	911c8273 	add	x19, x19, #0x720
    124c:	a90237ec 	stp	x12, x13, [sp, #32]
    1250:	aa1303e0 	mov	x0, x19
    1254:	a90327e8 	stp	x8, x9, [sp, #48]
    1258:	3d801be0 	str	q0, [sp, #96]
    125c:	3d801fe1 	str	q1, [sp, #112]
    1260:	3d8023e2 	str	q2, [sp, #128]
    1264:	3d8027e3 	str	q3, [sp, #144]
    1268:	3d802be4 	str	q4, [sp, #160]
    126c:	3d802fe5 	str	q5, [sp, #176]
    1270:	3d8033e6 	str	q6, [sp, #192]
    1274:	3d8037e7 	str	q7, [sp, #208]
    1278:	a90e8be1 	stp	x1, x2, [sp, #232]
    127c:	aa0a03e2 	mov	x2, x10
    1280:	d2804001 	mov	x1, #0x200                 	// #512
    1284:	a90f93e3 	stp	x3, x4, [sp, #248]
    1288:	910083e3 	add	x3, sp, #0x20
    128c:	a9109be5 	stp	x5, x6, [sp, #264]
    1290:	f9008fe7 	str	x7, [sp, #280]
    1294:	9400b3d0 	bl	2e1d4 <vsnprintf@plt>
    1298:	aa1303e4 	mov	x4, x19
    129c:	52800023 	mov	w3, #0x1                   	// #1
    12a0:	52800042 	mov	w2, #0x2                   	// #2
    12a4:	528006e1 	mov	w1, #0x37                  	// #55
    12a8:	d00001a0 	adrp	x0, 37000 <signals.7908+0xf0>
    12ac:	91378000 	add	x0, x0, #0xde0
    12b0:	9400b3b9 	bl	2e194 <trace_printf@plt>
    12b4:	52800000 	mov	w0, #0x0                   	// #0
    12b8:	f9400bf3 	ldr	x19, [sp, #16]
    12bc:	a8d27bfd 	ldp	x29, x30, [sp], #288
    12c0:	d65f03c0 	ret
    12c4:	00000000 	.inst	0x00000000 ; undefined

00000000000012c8 <os_vprintf>:
os_vprintf():
    12c8:	aa0103e4 	mov	x4, x1
    12cc:	a9bc7bfd 	stp	x29, x30, [sp, #-64]!
    12d0:	aa0003e2 	mov	x2, x0
    12d4:	910003fd 	mov	x29, sp
    12d8:	a9401c26 	ldp	x6, x7, [x1]
    12dc:	910083e3 	add	x3, sp, #0x20
    12e0:	a9411484 	ldp	x4, x5, [x4, #16]
    12e4:	f9000bf3 	str	x19, [sp, #16]
    12e8:	f00001f3 	adrp	x19, 40000 <ta_props+0x100>
    12ec:	91248273 	add	x19, x19, #0x920
    12f0:	aa1303e0 	mov	x0, x19
    12f4:	d2804001 	mov	x1, #0x200                 	// #512
    12f8:	a9021fe6 	stp	x6, x7, [sp, #32]
    12fc:	a90317e4 	stp	x4, x5, [sp, #48]
    1300:	9400b3b5 	bl	2e1d4 <vsnprintf@plt>
    1304:	aa1303e4 	mov	x4, x19
    1308:	52800023 	mov	w3, #0x1                   	// #1
    130c:	52800022 	mov	w2, #0x1                   	// #1
    1310:	528008e1 	mov	w1, #0x47                  	// #71
    1314:	d00001a0 	adrp	x0, 37000 <signals.7908+0xf0>
    1318:	9137c000 	add	x0, x0, #0xdf0
    131c:	9400b39e 	bl	2e194 <trace_printf@plt>
    1320:	52800000 	mov	w0, #0x0                   	// #0
    1324:	f9400bf3 	ldr	x19, [sp, #16]
    1328:	a8c47bfd 	ldp	x29, x30, [sp], #64
    132c:	d65f03c0 	ret

0000000000001330 <strcpy>:
strcpy():
    1330:	d2800002 	mov	x2, #0x0                   	// #0
    1334:	d503201f 	nop
    1338:	38626823 	ldrb	w3, [x1, x2]
    133c:	38226803 	strb	w3, [x0, x2]
    1340:	91000442 	add	x2, x2, #0x1
    1344:	35ffffa3 	cbnz	w3, 1338 <strcpy+0x8>
    1348:	d65f03c0 	ret
    134c:	00000000 	.inst	0x00000000 ; undefined

0000000000001350 <os_munmap>:
os_munmap():
    1350:	a9bd7bfd 	stp	x29, x30, [sp, #-48]!
    1354:	910003fd 	mov	x29, sp
    1358:	a90153f3 	stp	x19, x20, [sp, #16]
    135c:	913ffc34 	add	x20, x1, #0xfff
    1360:	9274ce94 	and	x20, x20, #0xfffffffffffff000
    1364:	aa0103f3 	mov	x19, x1
    1368:	aa1403e1 	mov	x1, x20
    136c:	f90013f5 	str	x21, [sp, #32]
    1370:	aa0003f5 	mov	x21, x0
    1374:	9400b39c 	bl	2e1e4 <tee_unmap@plt>
    1378:	34000160 	cbz	w0, 13a4 <os_munmap+0x54>
    137c:	aa1403e3 	mov	x3, x20
    1380:	aa1303e2 	mov	x2, x19
    1384:	aa1503e1 	mov	x1, x21
    1388:	2a0003e4 	mov	w4, w0
    138c:	a94153f3 	ldp	x19, x20, [sp, #16]
    1390:	d00001a0 	adrp	x0, 37000 <signals.7908+0xf0>
    1394:	f94013f5 	ldr	x21, [sp, #32]
    1398:	912da000 	add	x0, x0, #0xb68
    139c:	a8c37bfd 	ldp	x29, x30, [sp], #48
    13a0:	17ffff9c 	b	1210 <os_printf>
    13a4:	aa1403e7 	mov	x7, x20
    13a8:	aa1303e6 	mov	x6, x19
    13ac:	aa1503e5 	mov	x5, x21
    13b0:	d00001a4 	adrp	x4, 37000 <signals.7908+0xf0>
    13b4:	a94153f3 	ldp	x19, x20, [sp, #16]
    13b8:	912f0084 	add	x4, x4, #0xbc0
    13bc:	f94013f5 	ldr	x21, [sp, #32]
    13c0:	d00001a0 	adrp	x0, 37000 <signals.7908+0xf0>
    13c4:	a8c37bfd 	ldp	x29, x30, [sp], #48
    13c8:	91382000 	add	x0, x0, #0xe08
    13cc:	52800023 	mov	w3, #0x1                   	// #1
    13d0:	52800062 	mov	w2, #0x3                   	// #3
    13d4:	528010c1 	mov	w1, #0x86                  	// #134
    13d8:	1400b36f 	b	2e194 <trace_printf@plt>
    13dc:	00000000 	.inst	0x00000000 ; undefined

00000000000013e0 <os_mprotect>:
os_mprotect():
    13e0:	a9bd7bfd 	stp	x29, x30, [sp, #-48]!
    13e4:	910003fd 	mov	x29, sp
    13e8:	a90153f3 	stp	x19, x20, [sp, #16]
    13ec:	2a0203f3 	mov	w19, w2
    13f0:	aa0003f4 	mov	x20, x0
    13f4:	f90013f5 	str	x21, [sp, #32]
    13f8:	aa0103f5 	mov	x21, x1
    13fc:	36000373 	tbz	w19, #0, 1468 <os_mprotect+0x88>
    1400:	52807e02 	mov	w2, #0x3f0                 	// #1008
    1404:	52805a05 	mov	w5, #0x2d0                 	// #720
    1408:	52803600 	mov	w0, #0x1b0                 	// #432
    140c:	52801203 	mov	w3, #0x90                  	// #144
    1410:	721f0264 	ands	w4, w19, #0x2
    1414:	aa1503e1 	mov	x1, x21
    1418:	1a851042 	csel	w2, w2, w5, ne  // ne = any
    141c:	7100009f 	cmp	w4, #0x0
    1420:	1a831000 	csel	w0, w0, w3, ne  // ne = any
    1424:	f27e027f 	tst	x19, #0x4
    1428:	1a801042 	csel	w2, w2, w0, ne  // ne = any
    142c:	aa1403e0 	mov	x0, x20
    1430:	9400b3a5 	bl	2e2c4 <tee_mprotect@plt>
    1434:	2a0003e4 	mov	w4, w0
    1438:	34000220 	cbz	w0, 147c <os_mprotect+0x9c>
    143c:	2a1303e3 	mov	w3, w19
    1440:	aa1503e2 	mov	x2, x21
    1444:	aa1403e1 	mov	x1, x20
    1448:	d00001a0 	adrp	x0, 37000 <signals.7908+0xf0>
    144c:	912fe000 	add	x0, x0, #0xbf8
    1450:	97ffff70 	bl	1210 <os_printf>
    1454:	12800000 	mov	w0, #0xffffffff            	// #-1
    1458:	a94153f3 	ldp	x19, x20, [sp, #16]
    145c:	f94013f5 	ldr	x21, [sp, #32]
    1460:	a8c37bfd 	ldp	x29, x30, [sp], #48
    1464:	d65f03c0 	ret
    1468:	12000043 	and	w3, w2, #0x1
    146c:	52804805 	mov	w5, #0x240                 	// #576
    1470:	52806c02 	mov	w2, #0x360                 	// #864
    1474:	52802400 	mov	w0, #0x120                 	// #288
    1478:	17ffffe6 	b	1410 <os_mprotect+0x30>
    147c:	2a1303e7 	mov	w7, w19
    1480:	aa1503e6 	mov	x6, x21
    1484:	aa1403e5 	mov	x5, x20
    1488:	52800023 	mov	w3, #0x1                   	// #1
    148c:	52800062 	mov	w2, #0x3                   	// #3
    1490:	52801381 	mov	w1, #0x9c                  	// #156
    1494:	d00001a4 	adrp	x4, 37000 <signals.7908+0xf0>
    1498:	d00001a0 	adrp	x0, 37000 <signals.7908+0xf0>
    149c:	9130c084 	add	x4, x4, #0xc30
    14a0:	91386000 	add	x0, x0, #0xe18
    14a4:	9400b33c 	bl	2e194 <trace_printf@plt>
    14a8:	52800000 	mov	w0, #0x0                   	// #0
    14ac:	a94153f3 	ldp	x19, x20, [sp, #16]
    14b0:	f94013f5 	ldr	x21, [sp, #32]
    14b4:	a8c37bfd 	ldp	x29, x30, [sp], #48
    14b8:	d65f03c0 	ret
    14bc:	00000000 	.inst	0x00000000 ; undefined

00000000000014c0 <os_mmap>:
os_mmap():
    14c0:	d10143ff 	sub	sp, sp, #0x50
    14c4:	b27f7be0 	mov	x0, #0xfffffffe            	// #4294967294
    14c8:	a9017bfd 	stp	x29, x30, [sp, #16]
    14cc:	910043fd 	add	x29, sp, #0x10
    14d0:	a90253f3 	stp	x19, x20, [sp, #32]
    14d4:	913ffc34 	add	x20, x1, #0xfff
    14d8:	9274ce94 	and	x20, x20, #0xfffffffffffff000
    14dc:	eb00029f 	cmp	x20, x0
    14e0:	d2800013 	mov	x19, #0x0                   	// #0
    14e4:	54000528 	b.hi	1588 <os_mmap+0xc8>  // b.pmore
    14e8:	aa1403e0 	mov	x0, x20
    14ec:	a9035bf5 	stp	x21, x22, [sp, #48]
    14f0:	aa0103f5 	mov	x21, x1
    14f4:	2a0203f6 	mov	w22, w2
    14f8:	52800001 	mov	w1, #0x0                   	// #0
    14fc:	9400b36a 	bl	2e2a4 <tee_map_zi@plt>
    1500:	aa0003f3 	mov	x19, x0
    1504:	b40006c0 	cbz	x0, 15dc <os_mmap+0x11c>
    1508:	aa0003e5 	mov	x5, x0
    150c:	aa1403e7 	mov	x7, x20
    1510:	aa1503e6 	mov	x6, x21
    1514:	d00001a4 	adrp	x4, 37000 <signals.7908+0xf0>
    1518:	91326084 	add	x4, x4, #0xc98
    151c:	b90003f6 	str	w22, [sp]
    1520:	52800023 	mov	w3, #0x1                   	// #1
    1524:	f90023f7 	str	x23, [sp, #64]
    1528:	d00001b7 	adrp	x23, 37000 <signals.7908+0xf0>
    152c:	913802f7 	add	x23, x23, #0xe00
    1530:	aa1703e0 	mov	x0, x23
    1534:	52800062 	mov	w2, #0x3                   	// #3
    1538:	52800ce1 	mov	w1, #0x67                  	// #103
    153c:	9400b316 	bl	2e194 <trace_printf@plt>
    1540:	2a1603e2 	mov	w2, w22
    1544:	aa1403e1 	mov	x1, x20
    1548:	aa1303e0 	mov	x0, x19
    154c:	97ffffa5 	bl	13e0 <os_mprotect>
    1550:	35000260 	cbnz	w0, 159c <os_mmap+0xdc>
    1554:	b90003f6 	str	w22, [sp]
    1558:	aa1503e6 	mov	x6, x21
    155c:	aa1703e0 	mov	x0, x23
    1560:	aa1403e7 	mov	x7, x20
    1564:	aa1303e5 	mov	x5, x19
    1568:	d00001a4 	adrp	x4, 37000 <signals.7908+0xf0>
    156c:	52800023 	mov	w3, #0x1                   	// #1
    1570:	91348084 	add	x4, x4, #0xd20
    1574:	52800062 	mov	w2, #0x3                   	// #3
    1578:	52800e41 	mov	w1, #0x72                  	// #114
    157c:	9400b306 	bl	2e194 <trace_printf@plt>
    1580:	a9435bf5 	ldp	x21, x22, [sp, #48]
    1584:	f94023f7 	ldr	x23, [sp, #64]
    1588:	aa1303e0 	mov	x0, x19
    158c:	a9417bfd 	ldp	x29, x30, [sp, #16]
    1590:	a94253f3 	ldp	x19, x20, [sp, #32]
    1594:	910143ff 	add	sp, sp, #0x50
    1598:	d65f03c0 	ret
    159c:	2a1603e2 	mov	w2, w22
    15a0:	aa1503e1 	mov	x1, x21
    15a4:	d00001a0 	adrp	x0, 37000 <signals.7908+0xf0>
    15a8:	9133a000 	add	x0, x0, #0xce8
    15ac:	97ffff19 	bl	1210 <os_printf>
    15b0:	aa1403e1 	mov	x1, x20
    15b4:	aa1303e0 	mov	x0, x19
    15b8:	d2800013 	mov	x19, #0x0                   	// #0
    15bc:	9400b30a 	bl	2e1e4 <tee_unmap@plt>
    15c0:	aa1303e0 	mov	x0, x19
    15c4:	a9417bfd 	ldp	x29, x30, [sp, #16]
    15c8:	a94253f3 	ldp	x19, x20, [sp, #32]
    15cc:	a9435bf5 	ldp	x21, x22, [sp, #48]
    15d0:	f94023f7 	ldr	x23, [sp, #64]
    15d4:	910143ff 	add	sp, sp, #0x50
    15d8:	d65f03c0 	ret
    15dc:	2a1603e3 	mov	w3, w22
    15e0:	aa1503e1 	mov	x1, x21
    15e4:	aa1403e2 	mov	x2, x20
    15e8:	d00001a0 	adrp	x0, 37000 <signals.7908+0xf0>
    15ec:	91318000 	add	x0, x0, #0xc60
    15f0:	97ffff08 	bl	1210 <os_printf>
    15f4:	a9435bf5 	ldp	x21, x22, [sp, #48]
    15f8:	17ffffe4 	b	1588 <os_mmap+0xc8>
    15fc:	00000000 	.inst	0x00000000 ; undefined

0000000000001600 <os_dcache_flush>:
os_dcache_flush():
    1600:	d65f03c0 	ret
    1604:	00000000 	.inst	0x00000000 ; undefined

0000000000001608 <strtof>:
strtof():
    1608:	a9bf7bfd 	stp	x29, x30, [sp, #-16]!
    160c:	52800023 	mov	w3, #0x1                   	// #1
    1610:	52800022 	mov	w2, #0x1                   	// #1
    1614:	910003fd 	mov	x29, sp
    1618:	52801541 	mov	w1, #0xaa                  	// #170
    161c:	d00001a4 	adrp	x4, 37000 <signals.7908+0xf0>
    1620:	d00001a0 	adrp	x0, 37000 <signals.7908+0xf0>
    1624:	9135a084 	add	x4, x4, #0xd68
    1628:	9138a000 	add	x0, x0, #0xe28
    162c:	9400b2da 	bl	2e194 <trace_printf@plt>
    1630:	0f000400 	movi	v0.2s, #0x0
    1634:	a8c17bfd 	ldp	x29, x30, [sp], #16
    1638:	d65f03c0 	ret
    163c:	00000000 	.inst	0x00000000 ; undefined

0000000000001640 <strtol>:
strtol():
    1640:	1400b2b0 	b	2e100 <strtoul>
    1644:	00000000 	.inst	0x00000000 ; undefined

0000000000001648 <strtod>:
strtod():
    1648:	a9bf7bfd 	stp	x29, x30, [sp, #-16]!
    164c:	52800023 	mov	w3, #0x1                   	// #1
    1650:	52800022 	mov	w2, #0x1                   	// #1
    1654:	910003fd 	mov	x29, sp
    1658:	528016a1 	mov	w1, #0xb5                  	// #181
    165c:	d00001a4 	adrp	x4, 37000 <signals.7908+0xf0>
    1660:	d00001a0 	adrp	x0, 37000 <signals.7908+0xf0>
    1664:	91362084 	add	x4, x4, #0xd88
    1668:	9138c000 	add	x0, x0, #0xe30
    166c:	9400b2ca 	bl	2e194 <trace_printf@plt>
    1670:	2f00e400 	movi	d0, #0x0
    1674:	a8c17bfd 	ldp	x29, x30, [sp], #16
    1678:	d65f03c0 	ret
    167c:	00000000 	.inst	0x00000000 ; undefined

0000000000001680 <strtoull>:
strtoull():
    1680:	a9bf7bfd 	stp	x29, x30, [sp, #-16]!
    1684:	52800023 	mov	w3, #0x1                   	// #1
    1688:	52800022 	mov	w2, #0x1                   	// #1
    168c:	910003fd 	mov	x29, sp
    1690:	52801761 	mov	w1, #0xbb                  	// #187
    1694:	d00001a4 	adrp	x4, 37000 <signals.7908+0xf0>
    1698:	d00001a0 	adrp	x0, 37000 <signals.7908+0xf0>
    169c:	9136a084 	add	x4, x4, #0xda8
    16a0:	9138e000 	add	x0, x0, #0xe38
    16a4:	9400b2bc 	bl	2e194 <trace_printf@plt>
    16a8:	d2800000 	mov	x0, #0x0                   	// #0
    16ac:	a8c17bfd 	ldp	x29, x30, [sp], #16
    16b0:	d65f03c0 	ret
    16b4:	00000000 	.inst	0x00000000 ; undefined

00000000000016b8 <sqrtf>:
sqrtf():
    16b8:	a9bf7bfd 	stp	x29, x30, [sp, #-16]!
    16bc:	52800023 	mov	w3, #0x1                   	// #1
    16c0:	52800022 	mov	w2, #0x1                   	// #1
    16c4:	910003fd 	mov	x29, sp
    16c8:	52801821 	mov	w1, #0xc1                  	// #193
    16cc:	d00001a4 	adrp	x4, 37000 <signals.7908+0xf0>
    16d0:	d00001a0 	adrp	x0, 37000 <signals.7908+0xf0>
    16d4:	91372084 	add	x4, x4, #0xdc8
    16d8:	91392000 	add	x0, x0, #0xe48
    16dc:	9400b2ae 	bl	2e194 <trace_printf@plt>
    16e0:	0f000400 	movi	v0.2s, #0x0
    16e4:	a8c17bfd 	ldp	x29, x30, [sp], #16
    16e8:	d65f03c0 	ret
    16ec:	00000000 	.inst	0x00000000 ; undefined

00000000000016f0 <wasm_application_execute_main>:
wasm_application_execute_main():
    16f0:	a9b77bfd 	stp	x29, x30, [sp, #-144]!
    16f4:	910003fd 	mov	x29, sp
    16f8:	a90153f3 	stp	x19, x20, [sp, #16]
    16fc:	aa0003f4 	mov	x20, x0
    1700:	a9025bf5 	stp	x21, x22, [sp, #32]
    1704:	aa0203f6 	mov	x22, x2
    1708:	a90363f7 	stp	x23, x24, [sp, #48]
    170c:	2a0103f7 	mov	w23, w1
    1710:	a9046bf9 	stp	x25, x26, [sp, #64]
    1714:	f90043ff 	str	xzr, [sp, #128]
    1718:	9400098a 	bl	3d40 <wasm_runtime_is_wasi_mode>
    171c:	72001c1f 	tst	w0, #0xff
    1720:	54000080 	b.eq	1730 <wasm_application_execute_main+0x40>  // b.none
    1724:	aa1403e0 	mov	x0, x20
    1728:	94000992 	bl	3d70 <wasm_runtime_lookup_wasi_start_function>
    172c:	b5001280 	cbnz	x0, 197c <wasm_application_execute_main+0x28c>
    1730:	b9400299 	ldr	w25, [x20]
    1734:	35000dd9 	cbnz	w25, 18ec <wasm_application_execute_main+0x1fc>
    1738:	b9401698 	ldr	w24, [x20, #20]
    173c:	34000dd8 	cbz	w24, 18f4 <wasm_application_execute_main+0x204>
    1740:	f9401e9a 	ldr	x26, [x20, #56]
    1744:	51000718 	sub	w24, w24, #0x1
    1748:	a90573fb 	stp	x27, x28, [sp, #80]
    174c:	d00001a1 	adrp	x1, 37000 <signals.7908+0xf0>
    1750:	9100435b 	add	x27, x26, #0x10
    1754:	91394035 	add	x21, x1, #0xe50
    1758:	aa1a03f3 	mov	x19, x26
    175c:	8b38537b 	add	x27, x27, w24, uxtw #4
    1760:	14000004 	b	1770 <wasm_application_execute_main+0x80>
    1764:	91004273 	add	x19, x19, #0x10
    1768:	eb13037f 	cmp	x27, x19
    176c:	54001d40 	b.eq	1b14 <wasm_application_execute_main+0x424>  // b.none
    1770:	f9400260 	ldr	x0, [x19]
    1774:	aa1503e1 	mov	x1, x21
    1778:	9400b2c7 	bl	2e294 <strcmp@plt>
    177c:	35ffff40 	cbnz	w0, 1764 <wasm_application_execute_main+0x74>
    1780:	f9400675 	ldr	x21, [x19, #8]
    1784:	b4001c95 	cbz	x21, 1b14 <wasm_application_execute_main+0x424>
    1788:	394002ba 	ldrb	w26, [x21]
    178c:	35001ffa 	cbnz	w26, 1b88 <wasm_application_execute_main+0x498>
    1790:	2a1903e1 	mov	w1, w25
    1794:	aa1503e0 	mov	x0, x21
    1798:	94000472 	bl	2960 <wasm_runtime_get_function_type>
    179c:	aa0003f8 	mov	x24, x0
    17a0:	b4001aa0 	cbz	x0, 1af4 <wasm_application_execute_main+0x404>
    17a4:	79400000 	ldrh	w0, [x0]
    17a8:	121e7801 	and	w1, w0, #0xfffffffd
    17ac:	35000c41 	cbnz	w1, 1934 <wasm_application_execute_main+0x244>
    17b0:	79400701 	ldrh	w1, [x24, #2]
    17b4:	7100043f 	cmp	w1, #0x1
    17b8:	54000be8 	b.hi	1934 <wasm_application_execute_main+0x244>  // b.pmore
    17bc:	7100081f 	cmp	w0, #0x2
    17c0:	54000b20 	b.eq	1924 <wasm_application_execute_main+0x234>  // b.none
    17c4:	340000a1 	cbz	w1, 17d8 <wasm_application_execute_main+0xe8>
    17c8:	8b20c301 	add	x1, x24, w0, sxtw
    17cc:	39402021 	ldrb	w1, [x1, #8]
    17d0:	7101fc3f 	cmp	w1, #0x7f
    17d4:	54000b01 	b.ne	1934 <wasm_application_execute_main+0x244>  // b.any
    17d8:	34001320 	cbz	w0, 1a3c <wasm_application_execute_main+0x34c>
    17dc:	710002ff 	cmp	w23, #0x0
    17e0:	540020ed 	b.le	1bfc <wasm_application_execute_main+0x50c>
    17e4:	510006f9 	sub	w25, w23, #0x1
    17e8:	910022c0 	add	x0, x22, #0x8
    17ec:	aa1603f3 	mov	x19, x22
    17f0:	5280001b 	mov	w27, #0x0                   	// #0
    17f4:	8b394c19 	add	x25, x0, w25, uxtw #3
    17f8:	f8408660 	ldr	x0, [x19], #8
    17fc:	9400b2ba 	bl	2e2e4 <strlen@plt>
    1800:	11000403 	add	w3, w0, #0x1
    1804:	eb13033f 	cmp	x25, x19
    1808:	0b03037b 	add	w27, w27, w3
    180c:	54ffff61 	b.ne	17f8 <wasm_application_execute_main+0x108>  // b.any
    1810:	11000f73 	add	w19, w27, #0x3
    1814:	927e7673 	and	x19, x19, #0xfffffffc
    1818:	8b37ca7c 	add	x28, x19, w23, sxtw #2
    181c:	b27f7be0 	mov	x0, #0xfffffffe            	// #4294967294
    1820:	eb00039f 	cmp	x28, x0
    1824:	54000f48 	b.hi	1a0c <wasm_application_execute_main+0x31c>  // b.pmore
    1828:	910223e2 	add	x2, sp, #0x88
    182c:	2a1c03e1 	mov	w1, w28
    1830:	aa1403e0 	mov	x0, x20
    1834:	940006db 	bl	33a0 <wasm_runtime_module_malloc>
    1838:	2a0003f9 	mov	w25, w0
    183c:	34000e80 	cbz	w0, 1a0c <wasm_application_execute_main+0x31c>
    1840:	f94047fb 	ldr	x27, [sp, #136]
    1844:	710002ff 	cmp	w23, #0x0
    1848:	8b130360 	add	x0, x27, x19
    184c:	f90037e0 	str	x0, [sp, #104]
    1850:	8b1c0360 	add	x0, x27, x28
    1854:	f9003be0 	str	x0, [sp, #112]
    1858:	5400114d 	b.le	1a80 <wasm_application_execute_main+0x390>
    185c:	510006e0 	sub	w0, w23, #0x1
    1860:	aa1b03fa 	mov	x26, x27
    1864:	d280001c 	mov	x28, #0x0                   	// #0
    1868:	f9003fe0 	str	x0, [sp, #120]
    186c:	14000010 	b	18ac <wasm_application_execute_main+0x1bc>
    1870:	940036fa 	bl	f458 <b_memcpy_s>
    1874:	f94037e2 	ldr	x2, [sp, #104]
    1878:	f94047fa 	ldr	x26, [sp, #136]
    187c:	f87c7ac0 	ldr	x0, [x22, x28, lsl #3]
    1880:	cb1a0361 	sub	x1, x27, x26
    1884:	0b010321 	add	w1, w25, w1
    1888:	b83c7841 	str	w1, [x2, x28, lsl #2]
    188c:	9400b296 	bl	2e2e4 <strlen@plt>
    1890:	91000400 	add	x0, x0, #0x1
    1894:	f9403fe1 	ldr	x1, [sp, #120]
    1898:	8b00037b 	add	x27, x27, x0
    189c:	91000784 	add	x4, x28, #0x1
    18a0:	eb01039f 	cmp	x28, x1
    18a4:	54000ee0 	b.eq	1a80 <wasm_application_execute_main+0x390>  // b.none
    18a8:	aa0403fc 	mov	x28, x4
    18ac:	f87c7ad3 	ldr	x19, [x22, x28, lsl #3]
    18b0:	aa1303e0 	mov	x0, x19
    18b4:	9400b28c 	bl	2e2e4 <strlen@plt>
    18b8:	11000403 	add	w3, w0, #0x1
    18bc:	3100041f 	cmn	w0, #0x1
    18c0:	b94073e0 	ldr	w0, [sp, #112]
    18c4:	cb1a0366 	sub	x6, x27, x26
    18c8:	aa1303e2 	mov	x2, x19
    18cc:	0b060326 	add	w6, w25, w6
    18d0:	4b1b0001 	sub	w1, w0, w27
    18d4:	aa1b03e0 	mov	x0, x27
    18d8:	54fffcc1 	b.ne	1870 <wasm_application_execute_main+0x180>  // b.any
    18dc:	f94037e0 	ldr	x0, [sp, #104]
    18e0:	b83c7806 	str	w6, [x0, x28, lsl #2]
    18e4:	aa1303e0 	mov	x0, x19
    18e8:	17ffffe9 	b	188c <wasm_application_execute_main+0x19c>
    18ec:	7100073f 	cmp	w25, #0x1
    18f0:	54000600 	b.eq	19b0 <wasm_application_execute_main+0x2c0>  // b.none
    18f4:	d00001a1 	adrp	x1, 37000 <signals.7908+0xf0>
    18f8:	aa1403e0 	mov	x0, x20
    18fc:	9139e021 	add	x1, x1, #0xe78
    1900:	5280001a 	mov	w26, #0x0                   	// #0
    1904:	9400049f 	bl	2b80 <wasm_runtime_set_exception>
    1908:	2a1a03e0 	mov	w0, w26
    190c:	a94153f3 	ldp	x19, x20, [sp, #16]
    1910:	a9425bf5 	ldp	x21, x22, [sp, #32]
    1914:	a94363f7 	ldp	x23, x24, [sp, #48]
    1918:	a9446bf9 	ldp	x25, x26, [sp, #64]
    191c:	a8c97bfd 	ldp	x29, x30, [sp], #144
    1920:	d65f03c0 	ret
    1924:	79401302 	ldrh	w2, [x24, #8]
    1928:	528fefe0 	mov	w0, #0x7f7f                	// #32639
    192c:	6b00005f 	cmp	w2, w0
    1930:	54001300 	b.eq	1b90 <wasm_application_execute_main+0x4a0>  // b.none
    1934:	d00001a3 	adrp	x3, 37000 <signals.7908+0xf0>
    1938:	913ae063 	add	x3, x3, #0xeb8
    193c:	52800002 	mov	w2, #0x0                   	// #0
    1940:	d2800001 	mov	x1, #0x0                   	// #0
    1944:	52800020 	mov	w0, #0x1                   	// #1
    1948:	94003984 	bl	ff58 <bh_log>
    194c:	aa1403e0 	mov	x0, x20
    1950:	d00001a1 	adrp	x1, 37000 <signals.7908+0xf0>
    1954:	913be021 	add	x1, x1, #0xef8
    1958:	9400048a 	bl	2b80 <wasm_runtime_set_exception>
    195c:	2a1a03e0 	mov	w0, w26
    1960:	a94153f3 	ldp	x19, x20, [sp, #16]
    1964:	a9425bf5 	ldp	x21, x22, [sp, #32]
    1968:	a94363f7 	ldp	x23, x24, [sp, #48]
    196c:	a9446bf9 	ldp	x25, x26, [sp, #64]
    1970:	a94573fb 	ldp	x27, x28, [sp, #80]
    1974:	a8c97bfd 	ldp	x29, x30, [sp], #144
    1978:	d65f03c0 	ret
    197c:	aa0003e1 	mov	x1, x0
    1980:	d2800003 	mov	x3, #0x0                   	// #0
    1984:	aa1403e0 	mov	x0, x20
    1988:	52800002 	mov	w2, #0x0                   	// #0
    198c:	94000449 	bl	2ab0 <wasm_runtime_create_exec_env_and_call_wasm>
    1990:	12001c1a 	and	w26, w0, #0xff
    1994:	2a1a03e0 	mov	w0, w26
    1998:	a94153f3 	ldp	x19, x20, [sp, #16]
    199c:	a9425bf5 	ldp	x21, x22, [sp, #32]
    19a0:	a94363f7 	ldp	x23, x24, [sp, #48]
    19a4:	a9446bf9 	ldp	x25, x26, [sp, #64]
    19a8:	a8c97bfd 	ldp	x29, x30, [sp], #144
    19ac:	d65f03c0 	ret
    19b0:	b9403a9a 	ldr	w26, [x20, #56]
    19b4:	a90573fb 	stp	x27, x28, [sp, #80]
    19b8:	f940269b 	ldr	x27, [x20, #72]
    19bc:	34000e7a 	cbz	w26, 1b88 <wasm_application_execute_main+0x498>
    19c0:	91008360 	add	x0, x27, #0x20
    19c4:	5100075a 	sub	w26, w26, #0x1
    19c8:	52800418 	mov	w24, #0x20                  	// #32
    19cc:	d00001a1 	adrp	x1, 37000 <signals.7908+0xf0>
    19d0:	aa1b03f3 	mov	x19, x27
    19d4:	9139403c 	add	x28, x1, #0xe50
    19d8:	9bb80358 	umaddl	x24, w26, w24, x0
    19dc:	f90037e0 	str	x0, [sp, #104]
    19e0:	14000003 	b	19ec <wasm_application_execute_main+0x2fc>
    19e4:	eb13031f 	cmp	x24, x19
    19e8:	54000e80 	b.eq	1bb8 <wasm_application_execute_main+0x4c8>  // b.none
    19ec:	f9400260 	ldr	x0, [x19]
    19f0:	aa1303f5 	mov	x21, x19
    19f4:	aa1c03e1 	mov	x1, x28
    19f8:	91008273 	add	x19, x19, #0x20
    19fc:	9400b226 	bl	2e294 <strcmp@plt>
    1a00:	35ffff20 	cbnz	w0, 19e4 <wasm_application_execute_main+0x2f4>
    1a04:	394032ba 	ldrb	w26, [x21, #12]
    1a08:	17ffff61 	b	178c <wasm_application_execute_main+0x9c>
    1a0c:	aa1403e0 	mov	x0, x20
    1a10:	d00001a1 	adrp	x1, 37000 <signals.7908+0xf0>
    1a14:	913c8021 	add	x1, x1, #0xf20
    1a18:	9400045a 	bl	2b80 <wasm_runtime_set_exception>
    1a1c:	2a1a03e0 	mov	w0, w26
    1a20:	a94153f3 	ldp	x19, x20, [sp, #16]
    1a24:	a9425bf5 	ldp	x21, x22, [sp, #32]
    1a28:	a94363f7 	ldp	x23, x24, [sp, #48]
    1a2c:	a9446bf9 	ldp	x25, x26, [sp, #64]
    1a30:	a94573fb 	ldp	x27, x28, [sp, #80]
    1a34:	a8c97bfd 	ldp	x29, x30, [sp], #144
    1a38:	d65f03c0 	ret
    1a3c:	aa1503e1 	mov	x1, x21
    1a40:	910203e3 	add	x3, sp, #0x80
    1a44:	aa1403e0 	mov	x0, x20
    1a48:	52800002 	mov	w2, #0x0                   	// #0
    1a4c:	94000419 	bl	2ab0 <wasm_runtime_create_exec_env_and_call_wasm>
    1a50:	72001c1a 	ands	w26, w0, #0xff
    1a54:	54000060 	b.eq	1a60 <wasm_application_execute_main+0x370>  // b.none
    1a58:	79400700 	ldrh	w0, [x24, #2]
    1a5c:	35000a40 	cbnz	w0, 1ba4 <wasm_application_execute_main+0x4b4>
    1a60:	2a1a03e0 	mov	w0, w26
    1a64:	a94153f3 	ldp	x19, x20, [sp, #16]
    1a68:	a9425bf5 	ldp	x21, x22, [sp, #32]
    1a6c:	a94363f7 	ldp	x23, x24, [sp, #48]
    1a70:	a9446bf9 	ldp	x25, x26, [sp, #64]
    1a74:	a94573fb 	ldp	x27, x28, [sp, #80]
    1a78:	a8c97bfd 	ldp	x29, x30, [sp], #144
    1a7c:	d65f03c0 	ret
    1a80:	f94037e1 	ldr	x1, [sp, #104]
    1a84:	aa1403e0 	mov	x0, x20
    1a88:	b90083f7 	str	w23, [sp, #128]
    1a8c:	9400067d 	bl	3480 <wasm_runtime_addr_native_to_app>
    1a90:	2a0003e4 	mov	w4, w0
    1a94:	aa1503e1 	mov	x1, x21
    1a98:	910203e3 	add	x3, sp, #0x80
    1a9c:	aa1403e0 	mov	x0, x20
    1aa0:	52800042 	mov	w2, #0x2                   	// #2
    1aa4:	b90087e4 	str	w4, [sp, #132]
    1aa8:	94000402 	bl	2ab0 <wasm_runtime_create_exec_env_and_call_wasm>
    1aac:	72001c1a 	ands	w26, w0, #0xff
    1ab0:	54000180 	b.eq	1ae0 <wasm_application_execute_main+0x3f0>  // b.none
    1ab4:	79400700 	ldrh	w0, [x24, #2]
    1ab8:	34000140 	cbz	w0, 1ae0 <wasm_application_execute_main+0x3f0>
    1abc:	f10002df 	cmp	x22, #0x0
    1ac0:	7a401ae4 	ccmp	w23, #0x0, #0x4, ne  // ne = any
    1ac4:	540000ad 	b.le	1ad8 <wasm_application_execute_main+0x3e8>
    1ac8:	b94083e0 	ldr	w0, [sp, #128]
    1acc:	5280003a 	mov	w26, #0x1                   	// #1
    1ad0:	b90002c0 	str	w0, [x22]
    1ad4:	34fffc79 	cbz	w25, 1a60 <wasm_application_execute_main+0x370>
    1ad8:	5280003a 	mov	w26, #0x1                   	// #1
    1adc:	d503201f 	nop
    1ae0:	2a1903e1 	mov	w1, w25
    1ae4:	aa1403e0 	mov	x0, x20
    1ae8:	9400063e 	bl	33e0 <wasm_runtime_module_free>
    1aec:	a94573fb 	ldp	x27, x28, [sp, #80]
    1af0:	17ffff86 	b	1908 <wasm_application_execute_main+0x218>
    1af4:	d00001a3 	adrp	x3, 37000 <signals.7908+0xf0>
    1af8:	52800002 	mov	w2, #0x0                   	// #0
    1afc:	913a6063 	add	x3, x3, #0xe98
    1b00:	d2800001 	mov	x1, #0x0                   	// #0
    1b04:	52800020 	mov	w0, #0x1                   	// #1
    1b08:	94003914 	bl	ff58 <bh_log>
    1b0c:	a94573fb 	ldp	x27, x28, [sp, #80]
    1b10:	17ffff7e 	b	1908 <wasm_application_execute_main+0x218>
    1b14:	9100435b 	add	x27, x26, #0x10
    1b18:	d00001b5 	adrp	x21, 37000 <signals.7908+0xf0>
    1b1c:	8b38537b 	add	x27, x27, w24, uxtw #4
    1b20:	913962b5 	add	x21, x21, #0xe58
    1b24:	aa1a03f3 	mov	x19, x26
    1b28:	14000004 	b	1b38 <wasm_application_execute_main+0x448>
    1b2c:	91004273 	add	x19, x19, #0x10
    1b30:	eb13037f 	cmp	x27, x19
    1b34:	540000e0 	b.eq	1b50 <wasm_application_execute_main+0x460>  // b.none
    1b38:	f9400260 	ldr	x0, [x19]
    1b3c:	aa1503e1 	mov	x1, x21
    1b40:	9400b1d5 	bl	2e294 <strcmp@plt>
    1b44:	35ffff40 	cbnz	w0, 1b2c <wasm_application_execute_main+0x43c>
    1b48:	f9400675 	ldr	x21, [x19, #8]
    1b4c:	b5ffe1f5 	cbnz	x21, 1788 <wasm_application_execute_main+0x98>
    1b50:	91004340 	add	x0, x26, #0x10
    1b54:	d00001b3 	adrp	x19, 37000 <signals.7908+0xf0>
    1b58:	8b385018 	add	x24, x0, w24, uxtw #4
    1b5c:	9139c273 	add	x19, x19, #0xe70
    1b60:	14000004 	b	1b70 <wasm_application_execute_main+0x480>
    1b64:	9100435a 	add	x26, x26, #0x10
    1b68:	eb1a031f 	cmp	x24, x26
    1b6c:	540000e0 	b.eq	1b88 <wasm_application_execute_main+0x498>  // b.none
    1b70:	f9400340 	ldr	x0, [x26]
    1b74:	aa1303e1 	mov	x1, x19
    1b78:	9400b1c7 	bl	2e294 <strcmp@plt>
    1b7c:	35ffff40 	cbnz	w0, 1b64 <wasm_application_execute_main+0x474>
    1b80:	f9400755 	ldr	x21, [x26, #8]
    1b84:	b5ffe035 	cbnz	x21, 1788 <wasm_application_execute_main+0x98>
    1b88:	a94573fb 	ldp	x27, x28, [sp, #80]
    1b8c:	17ffff5a 	b	18f4 <wasm_application_execute_main+0x204>
    1b90:	34ffe261 	cbz	w1, 17dc <wasm_application_execute_main+0xec>
    1b94:	39402b00 	ldrb	w0, [x24, #10]
    1b98:	7101fc1f 	cmp	w0, #0x7f
    1b9c:	54ffe200 	b.eq	17dc <wasm_application_execute_main+0xec>  // b.none
    1ba0:	17ffff65 	b	1934 <wasm_application_execute_main+0x244>
    1ba4:	710002ff 	cmp	w23, #0x0
    1ba8:	fa40cac4 	ccmp	x22, #0x0, #0x4, gt
    1bac:	54fff5a0 	b.eq	1a60 <wasm_application_execute_main+0x370>  // b.none
    1bb0:	52800019 	mov	w25, #0x0                   	// #0
    1bb4:	17ffffc5 	b	1ac8 <wasm_application_execute_main+0x3d8>
    1bb8:	f94037e1 	ldr	x1, [sp, #104]
    1bbc:	52800400 	mov	w0, #0x20                  	// #32
    1bc0:	d00001b5 	adrp	x21, 37000 <signals.7908+0xf0>
    1bc4:	aa1b03f3 	mov	x19, x27
    1bc8:	913962b8 	add	x24, x21, #0xe58
    1bcc:	9ba0075c 	umaddl	x28, w26, w0, x1
    1bd0:	14000003 	b	1bdc <wasm_application_execute_main+0x4ec>
    1bd4:	eb13039f 	cmp	x28, x19
    1bd8:	54000160 	b.eq	1c04 <wasm_application_execute_main+0x514>  // b.none
    1bdc:	f9400260 	ldr	x0, [x19]
    1be0:	aa1303f5 	mov	x21, x19
    1be4:	aa1803e1 	mov	x1, x24
    1be8:	91008273 	add	x19, x19, #0x20
    1bec:	9400b1aa 	bl	2e294 <strcmp@plt>
    1bf0:	35ffff20 	cbnz	w0, 1bd4 <wasm_application_execute_main+0x4e4>
    1bf4:	394032ba 	ldrb	w26, [x21, #12]
    1bf8:	17fffee5 	b	178c <wasm_application_execute_main+0x9c>
    1bfc:	d2800013 	mov	x19, #0x0                   	// #0
    1c00:	17ffff06 	b	1818 <wasm_application_execute_main+0x128>
    1c04:	f94037e1 	ldr	x1, [sp, #104]
    1c08:	52800400 	mov	w0, #0x20                  	// #32
    1c0c:	d00001b3 	adrp	x19, 37000 <signals.7908+0xf0>
    1c10:	9139c273 	add	x19, x19, #0xe70
    1c14:	9ba0075a 	umaddl	x26, w26, w0, x1
    1c18:	14000003 	b	1c24 <wasm_application_execute_main+0x534>
    1c1c:	eb1b035f 	cmp	x26, x27
    1c20:	54fffb40 	b.eq	1b88 <wasm_application_execute_main+0x498>  // b.none
    1c24:	f9400360 	ldr	x0, [x27]
    1c28:	aa1b03f5 	mov	x21, x27
    1c2c:	aa1303e1 	mov	x1, x19
    1c30:	9100837b 	add	x27, x27, #0x20
    1c34:	9400b198 	bl	2e294 <strcmp@plt>
    1c38:	35ffff20 	cbnz	w0, 1c1c <wasm_application_execute_main+0x52c>
    1c3c:	394032ba 	ldrb	w26, [x21, #12]
    1c40:	17fffed3 	b	178c <wasm_application_execute_main+0x9c>
    1c44:	00000000 	.inst	0x00000000 ; undefined

0000000000001c48 <wasm_application_execute_func>:
wasm_application_execute_func():
    1c48:	a9af7bfd 	stp	x29, x30, [sp, #-272]!
    1c4c:	910003fd 	mov	x29, sp
    1c50:	a9025bf5 	stp	x21, x22, [sp, #32]
    1c54:	b9400016 	ldr	w22, [x0]
    1c58:	a90153f3 	stp	x19, x20, [sp, #16]
    1c5c:	aa0003f4 	mov	x20, x0
    1c60:	2a0203f3 	mov	w19, w2
    1c64:	a90363f7 	stp	x23, x24, [sp, #48]
    1c68:	a9046bf9 	stp	x25, x26, [sp, #64]
    1c6c:	aa0103f9 	mov	x25, x1
    1c70:	a90573fb 	stp	x27, x28, [sp, #80]
    1c74:	aa0303fc 	mov	x28, x3
    1c78:	35000416 	cbnz	w22, 1cf8 <wasm_application_execute_func+0xb0>
    1c7c:	b9401417 	ldr	w23, [x0, #20]
    1c80:	34000417 	cbz	w23, 1d00 <wasm_application_execute_func+0xb8>
    1c84:	f9401c15 	ldr	x21, [x0, #56]
    1c88:	510006f7 	sub	w23, w23, #0x1
    1c8c:	910042a0 	add	x0, x21, #0x10
    1c90:	8b375017 	add	x23, x0, w23, uxtw #4
    1c94:	14000004 	b	1ca4 <wasm_application_execute_func+0x5c>
    1c98:	910042b5 	add	x21, x21, #0x10
    1c9c:	eb1502ff 	cmp	x23, x21
    1ca0:	54000300 	b.eq	1d00 <wasm_application_execute_func+0xb8>  // b.none
    1ca4:	f94002a0 	ldr	x0, [x21]
    1ca8:	aa1903e1 	mov	x1, x25
    1cac:	9400b17a 	bl	2e294 <strcmp@plt>
    1cb0:	35ffff40 	cbnz	w0, 1c98 <wasm_application_execute_func+0x50>
    1cb4:	f94006b7 	ldr	x23, [x21, #8]
    1cb8:	b4000257 	cbz	x23, 1d00 <wasm_application_execute_func+0xb8>
    1cbc:	394002e0 	ldrb	w0, [x23]
    1cc0:	35000200 	cbnz	w0, 1d00 <wasm_application_execute_func+0xb8>
    1cc4:	2a1603e1 	mov	w1, w22
    1cc8:	aa1703e0 	mov	x0, x23
    1ccc:	94000325 	bl	2960 <wasm_runtime_get_function_type>
    1cd0:	aa0003f5 	mov	x21, x0
    1cd4:	b4002080 	cbz	x0, 20e4 <wasm_application_execute_func+0x49c>
    1cd8:	79400000 	ldrh	w0, [x0]
    1cdc:	6b13001f 	cmp	w0, w19
    1ce0:	54000620 	b.eq	1da4 <wasm_application_execute_func+0x15c>  // b.none
    1ce4:	aa1403e0 	mov	x0, x20
    1ce8:	d00001a1 	adrp	x1, 37000 <signals.7908+0xf0>
    1cec:	913d6021 	add	x1, x1, #0xf58
    1cf0:	940003a4 	bl	2b80 <wasm_runtime_set_exception>
    1cf4:	1400000d 	b	1d28 <wasm_application_execute_func+0xe0>
    1cf8:	710006df 	cmp	w22, #0x1
    1cfc:	54000340 	b.eq	1d64 <wasm_application_execute_func+0x11c>  // b.none
    1d00:	aa1903e3 	mov	x3, x25
    1d04:	d00001a2 	adrp	x2, 37000 <signals.7908+0xf0>
    1d08:	913ce042 	add	x2, x2, #0xf38
    1d0c:	910243f3 	add	x19, sp, #0x90
    1d10:	d2801001 	mov	x1, #0x80                  	// #128
    1d14:	aa1303e0 	mov	x0, x19
    1d18:	9400b11b 	bl	2e184 <snprintf@plt>
    1d1c:	aa1303e1 	mov	x1, x19
    1d20:	aa1403e0 	mov	x0, x20
    1d24:	94000397 	bl	2b80 <wasm_runtime_set_exception>
    1d28:	aa1403e0 	mov	x0, x20
    1d2c:	94000573 	bl	32f8 <wasm_runtime_get_exception>
    1d30:	f00001a2 	adrp	x2, 38000 <__func__.6476+0x1b8>
    1d34:	aa0003e1 	mov	x1, x0
    1d38:	52800013 	mov	w19, #0x0                   	// #0
    1d3c:	91000040 	add	x0, x2, #0x0
    1d40:	97fffd34 	bl	1210 <os_printf>
    1d44:	2a1303e0 	mov	w0, w19
    1d48:	a94153f3 	ldp	x19, x20, [sp, #16]
    1d4c:	a9425bf5 	ldp	x21, x22, [sp, #32]
    1d50:	a94363f7 	ldp	x23, x24, [sp, #48]
    1d54:	a9446bf9 	ldp	x25, x26, [sp, #64]
    1d58:	a94573fb 	ldp	x27, x28, [sp, #80]
    1d5c:	a8d17bfd 	ldp	x29, x30, [sp], #272
    1d60:	d65f03c0 	ret
    1d64:	b940381a 	ldr	w26, [x0, #56]
    1d68:	f9402415 	ldr	x21, [x0, #72]
    1d6c:	34fffcba 	cbz	w26, 1d00 <wasm_application_execute_func+0xb8>
    1d70:	5100075a 	sub	w26, w26, #0x1
    1d74:	910082a0 	add	x0, x21, #0x20
    1d78:	52800401 	mov	w1, #0x20                  	// #32
    1d7c:	9ba1035a 	umaddl	x26, w26, w1, x0
    1d80:	f94002a0 	ldr	x0, [x21]
    1d84:	aa1503f7 	mov	x23, x21
    1d88:	aa1903e1 	mov	x1, x25
    1d8c:	910082b5 	add	x21, x21, #0x20
    1d90:	9400b141 	bl	2e294 <strcmp@plt>
    1d94:	34fff980 	cbz	w0, 1cc4 <wasm_application_execute_func+0x7c>
    1d98:	eb15035f 	cmp	x26, x21
    1d9c:	54ffff21 	b.ne	1d80 <wasm_application_execute_func+0x138>  // b.any
    1da0:	17ffffd8 	b	1d00 <wasm_application_execute_func+0xb8>
    1da4:	79400aa0 	ldrh	w0, [x21, #4]
    1da8:	52800059 	mov	w25, #0x2                   	// #2
    1dac:	2a0003e1 	mov	w1, w0
    1db0:	79400ea0 	ldrh	w0, [x21, #6]
    1db4:	b90067e1 	str	w1, [sp, #100]
    1db8:	6b01001f 	cmp	w0, w1
    1dbc:	1a812000 	csel	w0, w0, w1, cs  // cs = hs, nlast
    1dc0:	6b19001f 	cmp	w0, w25
    1dc4:	1a992000 	csel	w0, w0, w25, cs  // cs = hs, nlast
    1dc8:	d37ef419 	lsl	x25, x0, #2
    1dcc:	2a1903e0 	mov	w0, w25
    1dd0:	94000184 	bl	23e0 <wasm_runtime_malloc>
    1dd4:	aa0003f6 	mov	x22, x0
    1dd8:	b4000b60 	cbz	x0, 1f44 <wasm_application_execute_func+0x2fc>
    1ddc:	aa1903e2 	mov	x2, x25
    1de0:	52800001 	mov	w1, #0x0                   	// #0
    1de4:	9400b128 	bl	2e284 <memset@plt>
    1de8:	7100027f 	cmp	w19, #0x0
    1dec:	54000b6d 	b.le	1f58 <wasm_application_execute_func+0x310>
    1df0:	f9400380 	ldr	x0, [x28]
    1df4:	f90047ff 	str	xzr, [sp, #136]
    1df8:	d280001a 	mov	x26, #0x0                   	// #0
    1dfc:	b90063fa 	str	w26, [sp, #96]
    1e00:	51000673 	sub	w19, w19, #0x1
    1e04:	910022b8 	add	x24, x21, #0x8
    1e08:	39400002 	ldrb	w2, [x0]
    1e0c:	910223fb 	add	x27, sp, #0x88
    1e10:	52800019 	mov	w25, #0x0                   	// #0
    1e14:	34000442 	cbz	w2, 1e9c <wasm_application_execute_func+0x254>
    1e18:	387a6b02 	ldrb	w2, [x24, x26]
    1e1c:	7101f85f 	cmp	w2, #0x7e
    1e20:	540007c0 	b.eq	1f18 <wasm_application_execute_func+0x2d0>  // b.none
    1e24:	54000568 	b.hi	1ed0 <wasm_application_execute_func+0x288>  // b.pmore
    1e28:	7101f05f 	cmp	w2, #0x7c
    1e2c:	54000640 	b.eq	1ef4 <wasm_application_execute_func+0x2ac>  // b.none
    1e30:	7101f45f 	cmp	w2, #0x7d
    1e34:	54000201 	b.ne	1e74 <wasm_application_execute_func+0x22c>  // b.any
    1e38:	aa1b03e1 	mov	x1, x27
    1e3c:	97fffdf3 	bl	1608 <strtof>
    1e40:	1e22c001 	fcvt	d1, s0
    1e44:	bd0093e0 	str	s0, [sp, #144]
    1e48:	1e612020 	fcmp	d1, d1
    1e4c:	540018e6 	b.vs	2168 <wasm_application_execute_func+0x520>
    1e50:	b94093e0 	ldr	w0, [sp, #144]
    1e54:	b839dac0 	str	w0, [x22, w25, sxtw #2]
    1e58:	11000739 	add	w25, w25, #0x1
    1e5c:	f94047e0 	ldr	x0, [sp, #136]
    1e60:	b40000a0 	cbz	x0, 1e74 <wasm_application_execute_func+0x22c>
    1e64:	39400000 	ldrb	w0, [x0]
    1e68:	71017c1f 	cmp	w0, #0x5f
    1e6c:	7a401804 	ccmp	w0, #0x0, #0x4, ne  // ne = any
    1e70:	54001a41 	b.ne	21b8 <wasm_application_execute_func+0x570>  // b.any
    1e74:	9100239c 	add	x28, x28, #0x8
    1e78:	eb13035f 	cmp	x26, x19
    1e7c:	91000743 	add	x3, x26, #0x1
    1e80:	540006c0 	b.eq	1f58 <wasm_application_execute_func+0x310>  // b.none
    1e84:	f9400380 	ldr	x0, [x28]
    1e88:	f90047ff 	str	xzr, [sp, #136]
    1e8c:	aa0303fa 	mov	x26, x3
    1e90:	b90063fa 	str	w26, [sp, #96]
    1e94:	39400002 	ldrb	w2, [x0]
    1e98:	35fffc02 	cbnz	w2, 1e18 <wasm_application_execute_func+0x1d0>
    1e9c:	2a1a03e3 	mov	w3, w26
    1ea0:	d00001a2 	adrp	x2, 37000 <signals.7908+0xf0>
    1ea4:	913de042 	add	x2, x2, #0xf78
    1ea8:	910243f3 	add	x19, sp, #0x90
    1eac:	d2801001 	mov	x1, #0x80                  	// #128
    1eb0:	aa1303e0 	mov	x0, x19
    1eb4:	9400b0b4 	bl	2e184 <snprintf@plt>
    1eb8:	aa1303e1 	mov	x1, x19
    1ebc:	aa1403e0 	mov	x0, x20
    1ec0:	94000330 	bl	2b80 <wasm_runtime_set_exception>
    1ec4:	aa1603e0 	mov	x0, x22
    1ec8:	94000188 	bl	24e8 <wasm_runtime_free>
    1ecc:	17ffff97 	b	1d28 <wasm_application_execute_func+0xe0>
    1ed0:	7101fc5f 	cmp	w2, #0x7f
    1ed4:	54fffd01 	b.ne	1e74 <wasm_application_execute_func+0x22c>  // b.any
    1ed8:	aa1b03e1 	mov	x1, x27
    1edc:	52800002 	mov	w2, #0x0                   	// #0
    1ee0:	9400b088 	bl	2e100 <strtoul>
    1ee4:	b839dac0 	str	w0, [x22, w25, sxtw #2]
    1ee8:	11000739 	add	w25, w25, #0x1
    1eec:	f94047e0 	ldr	x0, [sp, #136]
    1ef0:	17ffffdc 	b	1e60 <wasm_application_execute_func+0x218>
    1ef4:	aa1b03e1 	mov	x1, x27
    1ef8:	97fffdd4 	bl	1648 <strtod>
    1efc:	1e602000 	fcmp	d0, d0
    1f00:	54001026 	b.vs	2104 <wasm_application_execute_func+0x4bc>
    1f04:	f94047e0 	ldr	x0, [sp, #136]
    1f08:	937e7f22 	sbfiz	x2, x25, #2, #32
    1f0c:	11000b39 	add	w25, w25, #0x2
    1f10:	fc226ac0 	str	d0, [x22, x2]
    1f14:	17ffffd3 	b	1e60 <wasm_application_execute_func+0x218>
    1f18:	52800002 	mov	w2, #0x0                   	// #0
    1f1c:	aa1b03e1 	mov	x1, x27
    1f20:	97fffdd8 	bl	1680 <strtoull>
    1f24:	b839dac0 	str	w0, [x22, w25, sxtw #2]
    1f28:	937e7f22 	sbfiz	x2, x25, #2, #32
    1f2c:	d360fc00 	lsr	x0, x0, #32
    1f30:	8b0202c2 	add	x2, x22, x2
    1f34:	11000b39 	add	w25, w25, #0x2
    1f38:	b9000440 	str	w0, [x2, #4]
    1f3c:	f94047e0 	ldr	x0, [sp, #136]
    1f40:	17ffffc8 	b	1e60 <wasm_application_execute_func+0x218>
    1f44:	aa1403e0 	mov	x0, x20
    1f48:	d00001a1 	adrp	x1, 37000 <signals.7908+0xf0>
    1f4c:	913c8021 	add	x1, x1, #0xf20
    1f50:	9400030c 	bl	2b80 <wasm_runtime_set_exception>
    1f54:	17ffff75 	b	1d28 <wasm_application_execute_func+0xe0>
    1f58:	aa1403e0 	mov	x0, x20
    1f5c:	d2800001 	mov	x1, #0x0                   	// #0
    1f60:	94000308 	bl	2b80 <wasm_runtime_set_exception>
    1f64:	b94067e2 	ldr	w2, [sp, #100]
    1f68:	aa1603e3 	mov	x3, x22
    1f6c:	aa1703e1 	mov	x1, x23
    1f70:	aa1403e0 	mov	x0, x20
    1f74:	940002cf 	bl	2ab0 <wasm_runtime_create_exec_env_and_call_wasm>
    1f78:	72001c13 	ands	w19, w0, #0xff
    1f7c:	54fffa40 	b.eq	1ec4 <wasm_application_execute_func+0x27c>  // b.none
    1f80:	794006a1 	ldrh	w1, [x21, #2]
    1f84:	5280001a 	mov	w26, #0x0                   	// #0
    1f88:	52800019 	mov	w25, #0x0                   	// #0
    1f8c:	340003e1 	cbz	w1, 2008 <wasm_application_execute_func+0x3c0>
    1f90:	d00001b7 	adrp	x23, 37000 <signals.7908+0xf0>
    1f94:	d00001b4 	adrp	x20, 37000 <signals.7908+0xf0>
    1f98:	913f22f7 	add	x23, x23, #0xfc8
    1f9c:	913ee294 	add	x20, x20, #0xfb8
    1fa0:	d00001b8 	adrp	x24, 37000 <signals.7908+0xf0>
    1fa4:	d503201f 	nop
    1fa8:	794002a0 	ldrh	w0, [x21]
    1fac:	0b190000 	add	w0, w0, w25
    1fb0:	8b0002a0 	add	x0, x21, x0
    1fb4:	39402000 	ldrb	w0, [x0, #8]
    1fb8:	7101f81f 	cmp	w0, #0x7e
    1fbc:	54000600 	b.eq	207c <wasm_application_execute_func+0x434>  // b.none
    1fc0:	54000308 	b.hi	2020 <wasm_application_execute_func+0x3d8>  // b.pmore
    1fc4:	7101f01f 	cmp	w0, #0x7c
    1fc8:	54000740 	b.eq	20b0 <wasm_application_execute_func+0x468>  // b.none
    1fcc:	7101f41f 	cmp	w0, #0x7d
    1fd0:	54000101 	b.ne	1ff0 <wasm_application_execute_func+0x3a8>  // b.any
    1fd4:	bc7a5ac0 	ldr	s0, [x22, w26, uxtw #2]
    1fd8:	d00001a0 	adrp	x0, 37000 <signals.7908+0xf0>
    1fdc:	913f6000 	add	x0, x0, #0xfd8
    1fe0:	1100075a 	add	w26, w26, #0x1
    1fe4:	1e22c000 	fcvt	d0, s0
    1fe8:	97fffc8a 	bl	1210 <os_printf>
    1fec:	794006a1 	ldrh	w1, [x21, #2]
    1ff0:	51000420 	sub	w0, w1, #0x1
    1ff4:	6b19001f 	cmp	w0, w25
    1ff8:	54000288 	b.hi	2048 <wasm_application_execute_func+0x400>  // b.pmore
    1ffc:	11000739 	add	w25, w25, #0x1
    2000:	6b19003f 	cmp	w1, w25
    2004:	54fffd28 	b.hi	1fa8 <wasm_application_execute_func+0x360>  // b.pmore
    2008:	900001c0 	adrp	x0, 3a000 <__FUNCTION__.9672+0x638>
    200c:	91314000 	add	x0, x0, #0xc50
    2010:	97fffc80 	bl	1210 <os_printf>
    2014:	aa1603e0 	mov	x0, x22
    2018:	94000134 	bl	24e8 <wasm_runtime_free>
    201c:	17ffff4a 	b	1d44 <wasm_application_execute_func+0xfc>
    2020:	7101fc1f 	cmp	w0, #0x7f
    2024:	54fffe61 	b.ne	1ff0 <wasm_application_execute_func+0x3a8>  // b.any
    2028:	b87a5ac1 	ldr	w1, [x22, w26, uxtw #2]
    202c:	aa1403e0 	mov	x0, x20
    2030:	1100075a 	add	w26, w26, #0x1
    2034:	97fffc77 	bl	1210 <os_printf>
    2038:	794006a1 	ldrh	w1, [x21, #2]
    203c:	51000420 	sub	w0, w1, #0x1
    2040:	6b19001f 	cmp	w0, w25
    2044:	54fffdc9 	b.ls	1ffc <wasm_application_execute_func+0x3b4>  // b.plast
    2048:	b00001a0 	adrp	x0, 37000 <signals.7908+0xf0>
    204c:	913fe000 	add	x0, x0, #0xff8
    2050:	97fffc70 	bl	1210 <os_printf>
    2054:	11000739 	add	w25, w25, #0x1
    2058:	794006a1 	ldrh	w1, [x21, #2]
    205c:	6b01033f 	cmp	w25, w1
    2060:	54fffd42 	b.cs	2008 <wasm_application_execute_func+0x3c0>  // b.hs, b.nlast
    2064:	794002a0 	ldrh	w0, [x21]
    2068:	0b190000 	add	w0, w0, w25
    206c:	8b0002a0 	add	x0, x21, x0
    2070:	39402000 	ldrb	w0, [x0, #8]
    2074:	7101f81f 	cmp	w0, #0x7e
    2078:	54fffa41 	b.ne	1fc0 <wasm_application_execute_func+0x378>  // b.any
    207c:	11000741 	add	w1, w26, #0x1
    2080:	b87a5ac2 	ldr	w2, [x22, w26, uxtw #2]
    2084:	f94037e3 	ldr	x3, [sp, #104]
    2088:	aa1703e0 	mov	x0, x23
    208c:	b8617ac1 	ldr	w1, [x22, x1, lsl #2]
    2090:	11000b5a 	add	w26, w26, #0x2
    2094:	b3407c43 	bfxil	x3, x2, #0, #32
    2098:	b3607c23 	bfi	x3, x1, #32, #32
    209c:	f90037e3 	str	x3, [sp, #104]
    20a0:	aa0303e1 	mov	x1, x3
    20a4:	97fffc5b 	bl	1210 <os_printf>
    20a8:	794006a1 	ldrh	w1, [x21, #2]
    20ac:	17ffffd1 	b	1ff0 <wasm_application_execute_func+0x3a8>
    20b0:	11000741 	add	w1, w26, #0x1
    20b4:	b87a5ac2 	ldr	w2, [x22, w26, uxtw #2]
    20b8:	f9403be3 	ldr	x3, [sp, #112]
    20bc:	913fa300 	add	x0, x24, #0xfe8
    20c0:	b8617ac1 	ldr	w1, [x22, x1, lsl #2]
    20c4:	11000b5a 	add	w26, w26, #0x2
    20c8:	b3407c43 	bfxil	x3, x2, #0, #32
    20cc:	b3607c23 	bfi	x3, x1, #32, #32
    20d0:	9e670060 	fmov	d0, x3
    20d4:	f9003be3 	str	x3, [sp, #112]
    20d8:	97fffc4e 	bl	1210 <os_printf>
    20dc:	794006a1 	ldrh	w1, [x21, #2]
    20e0:	17ffffc4 	b	1ff0 <wasm_application_execute_func+0x3a8>
    20e4:	b00001a3 	adrp	x3, 37000 <signals.7908+0xf0>
    20e8:	52800002 	mov	w2, #0x0                   	// #0
    20ec:	913a6063 	add	x3, x3, #0xe98
    20f0:	d2800001 	mov	x1, #0x0                   	// #0
    20f4:	52800020 	mov	w0, #0x1                   	// #1
    20f8:	52800013 	mov	w19, #0x0                   	// #0
    20fc:	94003797 	bl	ff58 <bh_log>
    2100:	17ffff11 	b	1d44 <wasm_application_execute_func+0xfc>
    2104:	f9400382 	ldr	x2, [x28]
    2108:	9e660000 	fmov	x0, d0
    210c:	39400047 	ldrb	w7, [x2]
    2110:	b2410006 	orr	x6, x0, #0x8000000000000000
    2114:	7100b4ff 	cmp	w7, #0x2d
    2118:	9a8000c1 	csel	x1, x6, x0, eq  // eq = none
    211c:	9e670020 	fmov	d0, x1
    2120:	f94047e0 	ldr	x0, [sp, #136]
    2124:	39400002 	ldrb	w2, [x0]
    2128:	7100e85f 	cmp	w2, #0x3a
    212c:	54ffeee1 	b.ne	1f08 <wasm_application_execute_func+0x2c0>  // b.any
    2130:	52800002 	mov	w2, #0x0                   	// #0
    2134:	91000400 	add	x0, x0, #0x1
    2138:	aa1b03e1 	mov	x1, x27
    213c:	fd003fe0 	str	d0, [sp, #120]
    2140:	97fffd50 	bl	1680 <strtoull>
    2144:	d360fc07 	lsr	x7, x0, #32
    2148:	fd403fe0 	ldr	d0, [sp, #120]
    214c:	aa0003e6 	mov	x6, x0
    2150:	f94047e0 	ldr	x0, [sp, #136]
    2154:	9e660002 	fmov	x2, d0
    2158:	b3604ce2 	bfi	x2, x7, #32, #20
    215c:	b3407cc2 	bfxil	x2, x6, #0, #32
    2160:	9e670040 	fmov	d0, x2
    2164:	17ffff69 	b	1f08 <wasm_application_execute_func+0x2c0>
    2168:	f9400380 	ldr	x0, [x28]
    216c:	39400000 	ldrb	w0, [x0]
    2170:	7100b41f 	cmp	w0, #0x2d
    2174:	540001a0 	b.eq	21a8 <wasm_application_execute_func+0x560>  // b.none
    2178:	f94047e0 	ldr	x0, [sp, #136]
    217c:	39400002 	ldrb	w2, [x0]
    2180:	7100e85f 	cmp	w2, #0x3a
    2184:	54ffe661 	b.ne	1e50 <wasm_application_execute_func+0x208>  // b.any
    2188:	52800002 	mov	w2, #0x0                   	// #0
    218c:	91000400 	add	x0, x0, #0x1
    2190:	aa1b03e1 	mov	x1, x27
    2194:	9400afdb 	bl	2e100 <strtoul>
    2198:	b94093e2 	ldr	w2, [sp, #144]
    219c:	33005802 	bfxil	w2, w0, #0, #23
    21a0:	b90093e2 	str	w2, [sp, #144]
    21a4:	17ffff2b 	b	1e50 <wasm_application_execute_func+0x208>
    21a8:	1e260000 	fmov	w0, s0
    21ac:	32010000 	orr	w0, w0, #0x80000000
    21b0:	b90093e0 	str	w0, [sp, #144]
    21b4:	17fffff1 	b	2178 <wasm_application_execute_func+0x530>
    21b8:	b94063e3 	ldr	w3, [sp, #96]
    21bc:	b00001a2 	adrp	x2, 37000 <signals.7908+0xf0>
    21c0:	f9400384 	ldr	x4, [x28]
    21c4:	913e6042 	add	x2, x2, #0xf98
    21c8:	910243f3 	add	x19, sp, #0x90
    21cc:	d2801001 	mov	x1, #0x80                  	// #128
    21d0:	aa1303e0 	mov	x0, x19
    21d4:	9400afec 	bl	2e184 <snprintf@plt>
    21d8:	aa1303e1 	mov	x1, x19
    21dc:	aa1403e0 	mov	x0, x20
    21e0:	94000268 	bl	2b80 <wasm_runtime_set_exception>
    21e4:	17ffff38 	b	1ec4 <wasm_application_execute_func+0x27c>

00000000000021e8 <wasm_runtime_memory_init>:
wasm_runtime_memory_init():
    21e8:	a9be7bfd 	stp	x29, x30, [sp, #-32]!
    21ec:	910003fd 	mov	x29, sp
    21f0:	a90153f3 	stp	x19, x20, [sp, #16]
    21f4:	34000400 	cbz	w0, 2274 <wasm_runtime_memory_init+0x8c>
    21f8:	2a0003e2 	mov	w2, w0
    21fc:	7100041f 	cmp	w0, #0x1
    2200:	540008c0 	b.eq	2318 <wasm_runtime_memory_init+0x130>  // b.none
    2204:	7100081f 	cmp	w0, #0x2
    2208:	52800013 	mov	w19, #0x0                   	// #0
    220c:	540000a0 	b.eq	2220 <wasm_runtime_memory_init+0x38>  // b.none
    2210:	2a1303e0 	mov	w0, w19
    2214:	a94153f3 	ldp	x19, x20, [sp, #16]
    2218:	a8c27bfd 	ldp	x29, x30, [sp], #32
    221c:	d65f03c0 	ret
    2220:	b00001e6 	adrp	x6, 3f000 <_DYNAMIC>
    2224:	b00001e0 	adrp	x0, 3f000 <_DYNAMIC>
    2228:	f9413cc6 	ldr	x6, [x6, #632]
    222c:	f9414400 	ldr	x0, [x0, #648]
    2230:	eb0000df 	cmp	x6, x0
    2234:	54000440 	b.eq	22bc <wasm_runtime_memory_init+0xd4>  // b.none
    2238:	b00001e1 	adrp	x1, 3f000 <_DYNAMIC>
    223c:	d0007a67 	adrp	x7, f50000 <ta_heap+0xeff118>
    2240:	d0007a65 	adrp	x5, f50000 <ta_heap+0xeff118>
    2244:	d0007a64 	adrp	x4, f50000 <ta_heap+0xeff118>
    2248:	d0007a63 	adrp	x3, f50000 <ta_heap+0xeff118>
    224c:	52800033 	mov	w19, #0x1                   	// #1
    2250:	f9415021 	ldr	x1, [x1, #672]
    2254:	f9078460 	str	x0, [x3, #3848]
    2258:	f90790e1 	str	x1, [x7, #3872]
    225c:	2a1303e0 	mov	w0, w19
    2260:	b90f74a2 	str	w2, [x5, #3956]
    2264:	f9078886 	str	x6, [x4, #3856]
    2268:	a94153f3 	ldp	x19, x20, [sp, #16]
    226c:	a8c27bfd 	ldp	x29, x30, [sp], #32
    2270:	d65f03c0 	ret
    2274:	f9400033 	ldr	x19, [x1]
    2278:	b9400834 	ldr	w20, [x1, #8]
    227c:	aa1303e0 	mov	x0, x19
    2280:	2a1403e1 	mov	w1, w20
    2284:	94003461 	bl	f408 <mem_allocator_create>
    2288:	b4000340 	cbz	x0, 22f0 <wasm_runtime_memory_init+0x108>
    228c:	d0007a63 	adrp	x3, f50000 <ta_heap+0xeff118>
    2290:	d0007a64 	adrp	x4, f50000 <ta_heap+0xeff118>
    2294:	d0007a62 	adrp	x2, f50000 <ta_heap+0xeff118>
    2298:	52800021 	mov	w1, #0x1                   	// #1
    229c:	2a0103f3 	mov	w19, w1
    22a0:	f9078c80 	str	x0, [x4, #3864]
    22a4:	b90f7054 	str	w20, [x2, #3952]
    22a8:	2a1303e0 	mov	w0, w19
    22ac:	b90f7461 	str	w1, [x3, #3956]
    22b0:	a94153f3 	ldp	x19, x20, [sp, #16]
    22b4:	a8c27bfd 	ldp	x29, x30, [sp], #32
    22b8:	d65f03c0 	ret
    22bc:	b00001e5 	adrp	x5, 3f000 <_DYNAMIC>
    22c0:	aa0603e4 	mov	x4, x6
    22c4:	52800002 	mov	w2, #0x0                   	// #0
    22c8:	d2800001 	mov	x1, #0x0                   	// #0
    22cc:	f94150a5 	ldr	x5, [x5, #672]
    22d0:	52800020 	mov	w0, #0x1                   	// #1
    22d4:	d00001a3 	adrp	x3, 38000 <__func__.6476+0x1b8>
    22d8:	9100c063 	add	x3, x3, #0x30
    22dc:	9400371f 	bl	ff58 <bh_log>
    22e0:	2a1303e0 	mov	w0, w19
    22e4:	a94153f3 	ldp	x19, x20, [sp, #16]
    22e8:	a8c27bfd 	ldp	x29, x30, [sp], #32
    22ec:	d65f03c0 	ret
    22f0:	aa1303e4 	mov	x4, x19
    22f4:	2a1403e5 	mov	w5, w20
    22f8:	d00001a3 	adrp	x3, 38000 <__func__.6476+0x1b8>
    22fc:	52800002 	mov	w2, #0x0                   	// #0
    2300:	91002063 	add	x3, x3, #0x8
    2304:	d2800001 	mov	x1, #0x0                   	// #0
    2308:	52800020 	mov	w0, #0x1                   	// #1
    230c:	52800013 	mov	w19, #0x0                   	// #0
    2310:	94003712 	bl	ff58 <bh_log>
    2314:	17ffffbf 	b	2210 <wasm_runtime_memory_init+0x28>
    2318:	a9401424 	ldp	x4, x5, [x1]
    231c:	f9400826 	ldr	x6, [x1, #16]
    2320:	f100009f 	cmp	x4, #0x0
    2324:	fa4018c4 	ccmp	x6, #0x0, #0x4, ne  // ne = any
    2328:	1a9f07f3 	cset	w19, ne  // ne = any
    232c:	eb06009f 	cmp	x4, x6
    2330:	1a9f1273 	csel	w19, w19, wzr, ne  // ne = any
    2334:	350000f3 	cbnz	w19, 2350 <wasm_runtime_memory_init+0x168>
    2338:	d00001a3 	adrp	x3, 38000 <__func__.6476+0x1b8>
    233c:	52800002 	mov	w2, #0x0                   	// #0
    2340:	9100c063 	add	x3, x3, #0x30
    2344:	d2800001 	mov	x1, #0x0                   	// #0
    2348:	94003704 	bl	ff58 <bh_log>
    234c:	17ffffb1 	b	2210 <wasm_runtime_memory_init+0x28>
    2350:	d0007a62 	adrp	x2, f50000 <ta_heap+0xeff118>
    2354:	d0007a67 	adrp	x7, f50000 <ta_heap+0xeff118>
    2358:	d0007a61 	adrp	x1, f50000 <ta_heap+0xeff118>
    235c:	d0007a60 	adrp	x0, f50000 <ta_heap+0xeff118>
    2360:	52800043 	mov	w3, #0x2                   	// #2
    2364:	f90788e4 	str	x4, [x7, #3856]
    2368:	b90f7443 	str	w3, [x2, #3956]
    236c:	f9079025 	str	x5, [x1, #3872]
    2370:	f9078406 	str	x6, [x0, #3848]
    2374:	17ffffa7 	b	2210 <wasm_runtime_memory_init+0x28>

0000000000002378 <wasm_runtime_memory_destroy>:
wasm_runtime_memory_destroy():
    2378:	a9be7bfd 	stp	x29, x30, [sp, #-32]!
    237c:	910003fd 	mov	x29, sp
    2380:	f9000bf3 	str	x19, [sp, #16]
    2384:	d0007a73 	adrp	x19, f50000 <ta_heap+0xeff118>
    2388:	b94f7660 	ldr	w0, [x19, #3956]
    238c:	7100041f 	cmp	w0, #0x1
    2390:	540000a0 	b.eq	23a4 <wasm_runtime_memory_destroy+0x2c>  // b.none
    2394:	b90f767f 	str	wzr, [x19, #3956]
    2398:	f9400bf3 	ldr	x19, [sp, #16]
    239c:	a8c27bfd 	ldp	x29, x30, [sp], #32
    23a0:	d65f03c0 	ret
    23a4:	d0007a60 	adrp	x0, f50000 <ta_heap+0xeff118>
    23a8:	f9478c00 	ldr	x0, [x0, #3864]
    23ac:	9400341b 	bl	f418 <mem_allocator_destroy>
    23b0:	b90f767f 	str	wzr, [x19, #3956]
    23b4:	f9400bf3 	ldr	x19, [sp, #16]
    23b8:	a8c27bfd 	ldp	x29, x30, [sp], #32
    23bc:	d65f03c0 	ret

00000000000023c0 <wasm_runtime_memory_pool_size>:
wasm_runtime_memory_pool_size():
    23c0:	d0007a62 	adrp	x2, f50000 <ta_heap+0xeff118>
    23c4:	d0007a61 	adrp	x1, f50000 <ta_heap+0xeff118>
    23c8:	52a80000 	mov	w0, #0x40000000            	// #1073741824
    23cc:	b94f7442 	ldr	w2, [x2, #3956]
    23d0:	b94f7021 	ldr	w1, [x1, #3952]
    23d4:	7100045f 	cmp	w2, #0x1
    23d8:	1a800020 	csel	w0, w1, w0, eq  // eq = none
    23dc:	d65f03c0 	ret

00000000000023e0 <wasm_runtime_malloc>:
wasm_runtime_malloc():
    23e0:	a9bf7bfd 	stp	x29, x30, [sp, #-16]!
    23e4:	910003fd 	mov	x29, sp
    23e8:	34000160 	cbz	w0, 2414 <wasm_runtime_malloc+0x34>
    23ec:	d0007a61 	adrp	x1, f50000 <ta_heap+0xeff118>
    23f0:	b94f7421 	ldr	w1, [x1, #3956]
    23f4:	340002a1 	cbz	w1, 2448 <wasm_runtime_malloc+0x68>
    23f8:	7100043f 	cmp	w1, #0x1
    23fc:	540001c0 	b.eq	2434 <wasm_runtime_malloc+0x54>  // b.none
    2400:	a8c17bfd 	ldp	x29, x30, [sp], #16
    2404:	d0007a61 	adrp	x1, f50000 <ta_heap+0xeff118>
    2408:	f9478821 	ldr	x1, [x1, #3856]
    240c:	aa0103f0 	mov	x16, x1
    2410:	d61f0200 	br	x16
    2414:	52800040 	mov	w0, #0x2                   	// #2
    2418:	d00001a3 	adrp	x3, 38000 <__func__.6476+0x1b8>
    241c:	52800002 	mov	w2, #0x0                   	// #0
    2420:	9101a063 	add	x3, x3, #0x68
    2424:	d2800001 	mov	x1, #0x0                   	// #0
    2428:	940036cc 	bl	ff58 <bh_log>
    242c:	52800020 	mov	w0, #0x1                   	// #1
    2430:	17ffffef 	b	23ec <wasm_runtime_malloc+0xc>
    2434:	d0007a62 	adrp	x2, f50000 <ta_heap+0xeff118>
    2438:	2a0003e1 	mov	w1, w0
    243c:	a8c17bfd 	ldp	x29, x30, [sp], #16
    2440:	f9478c40 	ldr	x0, [x2, #3864]
    2444:	140033f9 	b	f428 <mem_allocator_malloc>
    2448:	52800002 	mov	w2, #0x0                   	// #0
    244c:	d2800001 	mov	x1, #0x0                   	// #0
    2450:	52800040 	mov	w0, #0x2                   	// #2
    2454:	d00001a3 	adrp	x3, 38000 <__func__.6476+0x1b8>
    2458:	91026063 	add	x3, x3, #0x98
    245c:	940036bf 	bl	ff58 <bh_log>
    2460:	d2800000 	mov	x0, #0x0                   	// #0
    2464:	a8c17bfd 	ldp	x29, x30, [sp], #16
    2468:	d65f03c0 	ret
    246c:	00000000 	.inst	0x00000000 ; undefined

0000000000002470 <wasm_runtime_realloc>:
wasm_runtime_realloc():
    2470:	d0007a62 	adrp	x2, f50000 <ta_heap+0xeff118>
    2474:	b94f7444 	ldr	w4, [x2, #3956]
    2478:	34000204 	cbz	w4, 24b8 <wasm_runtime_realloc+0x48>
    247c:	7100049f 	cmp	w4, #0x1
    2480:	54000100 	b.eq	24a0 <wasm_runtime_realloc+0x30>  // b.none
    2484:	d0007a62 	adrp	x2, f50000 <ta_heap+0xeff118>
    2488:	f9479042 	ldr	x2, [x2, #3872]
    248c:	b4000062 	cbz	x2, 2498 <wasm_runtime_realloc+0x28>
    2490:	aa0203f0 	mov	x16, x2
    2494:	d61f0200 	br	x16
    2498:	d2800000 	mov	x0, #0x0                   	// #0
    249c:	d65f03c0 	ret
    24a0:	aa0003e3 	mov	x3, x0
    24a4:	d0007a60 	adrp	x0, f50000 <ta_heap+0xeff118>
    24a8:	2a0103e2 	mov	w2, w1
    24ac:	aa0303e1 	mov	x1, x3
    24b0:	f9478c00 	ldr	x0, [x0, #3864]
    24b4:	140033df 	b	f430 <mem_allocator_realloc>
    24b8:	a9bf7bfd 	stp	x29, x30, [sp, #-16]!
    24bc:	52800002 	mov	w2, #0x0                   	// #0
    24c0:	d2800001 	mov	x1, #0x0                   	// #0
    24c4:	910003fd 	mov	x29, sp
    24c8:	52800040 	mov	w0, #0x2                   	// #2
    24cc:	d00001a3 	adrp	x3, 38000 <__func__.6476+0x1b8>
    24d0:	91036063 	add	x3, x3, #0xd8
    24d4:	940036a1 	bl	ff58 <bh_log>
    24d8:	d2800000 	mov	x0, #0x0                   	// #0
    24dc:	a8c17bfd 	ldp	x29, x30, [sp], #16
    24e0:	d65f03c0 	ret
    24e4:	00000000 	.inst	0x00000000 ; undefined

00000000000024e8 <wasm_runtime_free>:
wasm_runtime_free():
    24e8:	aa0003e1 	mov	x1, x0
    24ec:	b4000240 	cbz	x0, 2534 <wasm_runtime_free+0x4c>
    24f0:	d0007a62 	adrp	x2, f50000 <ta_heap+0xeff118>
    24f4:	b94f7442 	ldr	w2, [x2, #3956]
    24f8:	340000e2 	cbz	w2, 2514 <wasm_runtime_free+0x2c>
    24fc:	7100045f 	cmp	w2, #0x1
    2500:	54000140 	b.eq	2528 <wasm_runtime_free+0x40>  // b.none
    2504:	d0007a61 	adrp	x1, f50000 <ta_heap+0xeff118>
    2508:	f9478421 	ldr	x1, [x1, #3848]
    250c:	aa0103f0 	mov	x16, x1
    2510:	d61f0200 	br	x16
    2514:	d00001a3 	adrp	x3, 38000 <__func__.6476+0x1b8>
    2518:	d2800001 	mov	x1, #0x0                   	// #0
    251c:	91052063 	add	x3, x3, #0x148
    2520:	52800040 	mov	w0, #0x2                   	// #2
    2524:	1400368d 	b	ff58 <bh_log>
    2528:	d0007a60 	adrp	x0, f50000 <ta_heap+0xeff118>
    252c:	f9478c00 	ldr	x0, [x0, #3864]
    2530:	140033c2 	b	f438 <mem_allocator_free>
    2534:	d00001a3 	adrp	x3, 38000 <__func__.6476+0x1b8>
    2538:	52800002 	mov	w2, #0x0                   	// #0
    253c:	91046063 	add	x3, x3, #0x118
    2540:	52800040 	mov	w0, #0x2                   	// #2
    2544:	14003685 	b	ff58 <bh_log>

0000000000002548 <wasm_runtime_init>:
wasm_runtime_init():
    2548:	a9bf7bfd 	stp	x29, x30, [sp, #-16]!
    254c:	d2800001 	mov	x1, #0x0                   	// #0
    2550:	52800040 	mov	w0, #0x2                   	// #2
    2554:	910003fd 	mov	x29, sp
    2558:	97ffff24 	bl	21e8 <wasm_runtime_memory_init>
    255c:	72001c00 	ands	w0, w0, #0xff
    2560:	54000061 	b.ne	256c <wasm_runtime_init+0x24>  // b.any
    2564:	a8c17bfd 	ldp	x29, x30, [sp], #16
    2568:	d65f03c0 	ret
    256c:	97fffb1d 	bl	11e0 <bh_platform_init>
    2570:	350000a0 	cbnz	w0, 2584 <wasm_runtime_init+0x3c>
    2574:	94007179 	bl	1eb58 <wasm_native_init>
    2578:	72001c00 	ands	w0, w0, #0xff
    257c:	54ffff41 	b.ne	2564 <wasm_runtime_init+0x1c>  // b.any
    2580:	97fffb1a 	bl	11e8 <bh_platform_destroy>
    2584:	97ffff7d 	bl	2378 <wasm_runtime_memory_destroy>
    2588:	52800000 	mov	w0, #0x0                   	// #0
    258c:	a8c17bfd 	ldp	x29, x30, [sp], #16
    2590:	d65f03c0 	ret
    2594:	00000000 	.inst	0x00000000 ; undefined

0000000000002598 <wasm_runtime_destroy>:
wasm_runtime_destroy():
    2598:	a9bf7bfd 	stp	x29, x30, [sp, #-16]!
    259c:	910003fd 	mov	x29, sp
    25a0:	940071a4 	bl	1ec30 <wasm_native_destroy>
    25a4:	97fffb11 	bl	11e8 <bh_platform_destroy>
    25a8:	a8c17bfd 	ldp	x29, x30, [sp], #16
    25ac:	17ffff73 	b	2378 <wasm_runtime_memory_destroy>

00000000000025b0 <get_package_type>:
get_package_type():
    25b0:	f100001f 	cmp	x0, #0x0
    25b4:	aa0003e2 	mov	x2, x0
    25b8:	7a431820 	ccmp	w1, #0x3, #0x0, ne  // ne = any
    25bc:	529fffe0 	mov	w0, #0xffff                	// #65535
    25c0:	540000e9 	b.ls	25dc <get_package_type+0x2c>  // b.plast
    25c4:	39400041 	ldrb	w1, [x2]
    25c8:	529fffe0 	mov	w0, #0xffff                	// #65535
    25cc:	35000081 	cbnz	w1, 25dc <get_package_type+0x2c>
    25d0:	39400441 	ldrb	w1, [x2, #1]
    25d4:	7101843f 	cmp	w1, #0x61
    25d8:	54000040 	b.eq	25e0 <get_package_type+0x30>  // b.none
    25dc:	d65f03c0 	ret
    25e0:	39400841 	ldrb	w1, [x2, #2]
    25e4:	7101cc3f 	cmp	w1, #0x73
    25e8:	540000e0 	b.eq	2604 <get_package_type+0x54>  // b.none
    25ec:	7101bc3f 	cmp	w1, #0x6f
    25f0:	54ffff61 	b.ne	25dc <get_package_type+0x2c>  // b.any
    25f4:	39400c41 	ldrb	w1, [x2, #3]
    25f8:	7101d03f 	cmp	w1, #0x74
    25fc:	1a9f1400 	csinc	w0, w0, wzr, ne  // ne = any
    2600:	d65f03c0 	ret
    2604:	39400c41 	ldrb	w1, [x2, #3]
    2608:	7101b43f 	cmp	w1, #0x6d
    260c:	1a9f1000 	csel	w0, w0, wzr, ne  // ne = any
    2610:	d65f03c0 	ret
    2614:	00000000 	.inst	0x00000000 ; undefined

0000000000002618 <wasm_runtime_is_built_in_module>:
wasm_runtime_is_built_in_module():
    2618:	a9be7bfd 	stp	x29, x30, [sp, #-32]!
    261c:	d00001a1 	adrp	x1, 38000 <__func__.6476+0x1b8>
    2620:	910003fd 	mov	x29, sp
    2624:	a90153f3 	stp	x19, x20, [sp, #16]
    2628:	aa0003f3 	mov	x19, x0
    262c:	52800034 	mov	w20, #0x1                   	// #1
    2630:	91064020 	add	x0, x1, #0x190
    2634:	aa1303e1 	mov	x1, x19
    2638:	9400af17 	bl	2e294 <strcmp@plt>
    263c:	340000e0 	cbz	w0, 2658 <wasm_runtime_is_built_in_module+0x40>
    2640:	d00001a0 	adrp	x0, 38000 <__func__.6476+0x1b8>
    2644:	aa1303e1 	mov	x1, x19
    2648:	91066000 	add	x0, x0, #0x198
    264c:	52800034 	mov	w20, #0x1                   	// #1
    2650:	9400af11 	bl	2e294 <strcmp@plt>
    2654:	350000a0 	cbnz	w0, 2668 <wasm_runtime_is_built_in_module+0x50>
    2658:	2a1403e0 	mov	w0, w20
    265c:	a94153f3 	ldp	x19, x20, [sp, #16]
    2660:	a8c27bfd 	ldp	x29, x30, [sp], #32
    2664:	d65f03c0 	ret
    2668:	d00001a0 	adrp	x0, 38000 <__func__.6476+0x1b8>
    266c:	aa1303e1 	mov	x1, x19
    2670:	9106a000 	add	x0, x0, #0x1a8
    2674:	9400af08 	bl	2e294 <strcmp@plt>
    2678:	34ffff00 	cbz	w0, 2658 <wasm_runtime_is_built_in_module+0x40>
    267c:	39400260 	ldrb	w0, [x19]
    2680:	7100001f 	cmp	w0, #0x0
    2684:	1a9f17f4 	cset	w20, eq  // eq = none
    2688:	2a1403e0 	mov	w0, w20
    268c:	a94153f3 	ldp	x19, x20, [sp, #16]
    2690:	a8c27bfd 	ldp	x29, x30, [sp], #32
    2694:	d65f03c0 	ret

0000000000002698 <wasm_runtime_load>:
wasm_runtime_load():
    2698:	a9bd7bfd 	stp	x29, x30, [sp, #-48]!
    269c:	910003fd 	mov	x29, sp
    26a0:	a90153f3 	stp	x19, x20, [sp, #16]
    26a4:	aa0203f4 	mov	x20, x2
    26a8:	2a0103f3 	mov	w19, w1
    26ac:	a9025bf5 	stp	x21, x22, [sp, #32]
    26b0:	2a0303f6 	mov	w22, w3
    26b4:	aa0003f5 	mov	x21, x0
    26b8:	97ffffbe 	bl	25b0 <get_package_type>
    26bc:	34000440 	cbz	w0, 2744 <wasm_runtime_load+0xac>
    26c0:	2a1303e1 	mov	w1, w19
    26c4:	aa1503e0 	mov	x0, x21
    26c8:	97ffffba 	bl	25b0 <get_package_type>
    26cc:	7100041f 	cmp	w0, #0x1
    26d0:	540004a0 	b.eq	2764 <wasm_runtime_load+0xcc>  // b.none
    26d4:	71000e7f 	cmp	w19, #0x3
    26d8:	540001c8 	b.hi	2710 <wasm_runtime_load+0x78>  // b.pmore
    26dc:	b4000114 	cbz	x20, 26fc <wasm_runtime_load+0x64>
    26e0:	d00001a3 	adrp	x3, 38000 <__func__.6476+0x1b8>
    26e4:	d00001a2 	adrp	x2, 38000 <__func__.6476+0x1b8>
    26e8:	2a1603e1 	mov	w1, w22
    26ec:	aa1403e0 	mov	x0, x20
    26f0:	91070063 	add	x3, x3, #0x1c0
    26f4:	91256042 	add	x2, x2, #0x958
    26f8:	9400aea3 	bl	2e184 <snprintf@plt>
    26fc:	d2800000 	mov	x0, #0x0                   	// #0
    2700:	a94153f3 	ldp	x19, x20, [sp, #16]
    2704:	a9425bf5 	ldp	x21, x22, [sp, #32]
    2708:	a8c37bfd 	ldp	x29, x30, [sp], #48
    270c:	d65f03c0 	ret
    2710:	b4ffff74 	cbz	x20, 26fc <wasm_runtime_load+0x64>
    2714:	2a1603e1 	mov	w1, w22
    2718:	aa1403e0 	mov	x0, x20
    271c:	d00001a3 	adrp	x3, 38000 <__func__.6476+0x1b8>
    2720:	d00001a2 	adrp	x2, 38000 <__func__.6476+0x1b8>
    2724:	9107a063 	add	x3, x3, #0x1e8
    2728:	91256042 	add	x2, x2, #0x958
    272c:	9400ae96 	bl	2e184 <snprintf@plt>
    2730:	d2800000 	mov	x0, #0x0                   	// #0
    2734:	a94153f3 	ldp	x19, x20, [sp, #16]
    2738:	a9425bf5 	ldp	x21, x22, [sp, #32]
    273c:	a8c37bfd 	ldp	x29, x30, [sp], #48
    2740:	d65f03c0 	ret
    2744:	2a1603e3 	mov	w3, w22
    2748:	aa1403e2 	mov	x2, x20
    274c:	2a1303e1 	mov	w1, w19
    2750:	aa1503e0 	mov	x0, x21
    2754:	a94153f3 	ldp	x19, x20, [sp, #16]
    2758:	a9425bf5 	ldp	x21, x22, [sp, #32]
    275c:	a8c37bfd 	ldp	x29, x30, [sp], #48
    2760:	14000c58 	b	58c0 <wasm_load>
    2764:	2a1603e3 	mov	w3, w22
    2768:	aa1403e2 	mov	x2, x20
    276c:	2a1303e1 	mov	w1, w19
    2770:	aa1503e0 	mov	x0, x21
    2774:	a94153f3 	ldp	x19, x20, [sp, #16]
    2778:	a9425bf5 	ldp	x21, x22, [sp, #32]
    277c:	a8c37bfd 	ldp	x29, x30, [sp], #48
    2780:	1400215c 	b	acf0 <aot_load_from_aot_file>
    2784:	00000000 	.inst	0x00000000 ; undefined

0000000000002788 <wasm_runtime_load_from_sections>:
wasm_runtime_load_from_sections():
    2788:	aa0203e4 	mov	x4, x2
    278c:	72001c3f 	tst	w1, #0xff
    2790:	2a0303e2 	mov	w2, w3
    2794:	aa0403e1 	mov	x1, x4
    2798:	54000041 	b.ne	27a0 <wasm_runtime_load_from_sections+0x18>  // b.any
    279c:	14000c4b 	b	58c8 <wasm_load_from_sections>
    27a0:	14002108 	b	abc0 <aot_load_from_sections>
    27a4:	00000000 	.inst	0x00000000 ; undefined

00000000000027a8 <wasm_runtime_unload>:
wasm_runtime_unload():
    27a8:	b9400001 	ldr	w1, [x0]
    27ac:	34000081 	cbz	w1, 27bc <wasm_runtime_unload+0x14>
    27b0:	7100043f 	cmp	w1, #0x1
    27b4:	54000060 	b.eq	27c0 <wasm_runtime_unload+0x18>  // b.none
    27b8:	d65f03c0 	ret
    27bc:	14000c45 	b	58d0 <wasm_unload>
    27c0:	14002074 	b	a990 <aot_unload>
    27c4:	00000000 	.inst	0x00000000 ; undefined

00000000000027c8 <wasm_runtime_instantiate_internal>:
wasm_runtime_instantiate_internal():
    27c8:	b9400008 	ldr	w8, [x0]
    27cc:	12001c21 	and	w1, w1, #0xff
    27d0:	34000248 	cbz	w8, 2818 <wasm_runtime_instantiate_internal+0x50>
    27d4:	7100051f 	cmp	w8, #0x1
    27d8:	54000220 	b.eq	281c <wasm_runtime_instantiate_internal+0x54>  // b.none
    27dc:	b40001a4 	cbz	x4, 2810 <wasm_runtime_instantiate_internal+0x48>
    27e0:	a9bf7bfd 	stp	x29, x30, [sp, #-16]!
    27e4:	2a0503e1 	mov	w1, w5
    27e8:	aa0403e0 	mov	x0, x4
    27ec:	910003fd 	mov	x29, sp
    27f0:	d00001a3 	adrp	x3, 38000 <__func__.6476+0x1b8>
    27f4:	91088063 	add	x3, x3, #0x220
    27f8:	d00001a2 	adrp	x2, 38000 <__func__.6476+0x1b8>
    27fc:	91256042 	add	x2, x2, #0x958
    2800:	9400ae61 	bl	2e184 <snprintf@plt>
    2804:	d2800000 	mov	x0, #0x0                   	// #0
    2808:	a8c17bfd 	ldp	x29, x30, [sp], #16
    280c:	d65f03c0 	ret
    2810:	d2800000 	mov	x0, #0x0                   	// #0
    2814:	d65f03c0 	ret
    2818:	14000d1c 	b	5c88 <wasm_instantiate>
    281c:	14002413 	b	b868 <aot_instantiate>

0000000000002820 <wasm_runtime_instantiate>:
wasm_runtime_instantiate():
    2820:	b9400005 	ldr	w5, [x0]
    2824:	34000245 	cbz	w5, 286c <wasm_runtime_instantiate+0x4c>
    2828:	710004bf 	cmp	w5, #0x1
    282c:	540002c0 	b.eq	2884 <wasm_runtime_instantiate+0x64>  // b.none
    2830:	b40001a3 	cbz	x3, 2864 <wasm_runtime_instantiate+0x44>
    2834:	a9bf7bfd 	stp	x29, x30, [sp, #-16]!
    2838:	2a0403e1 	mov	w1, w4
    283c:	aa0303e0 	mov	x0, x3
    2840:	910003fd 	mov	x29, sp
    2844:	d00001a3 	adrp	x3, 38000 <__func__.6476+0x1b8>
    2848:	91088063 	add	x3, x3, #0x220
    284c:	d00001a2 	adrp	x2, 38000 <__func__.6476+0x1b8>
    2850:	91256042 	add	x2, x2, #0x958
    2854:	9400ae4c 	bl	2e184 <snprintf@plt>
    2858:	d2800000 	mov	x0, #0x0                   	// #0
    285c:	a8c17bfd 	ldp	x29, x30, [sp], #16
    2860:	d65f03c0 	ret
    2864:	d2800000 	mov	x0, #0x0                   	// #0
    2868:	d65f03c0 	ret
    286c:	2a0403e5 	mov	w5, w4
    2870:	aa0303e4 	mov	x4, x3
    2874:	2a0203e3 	mov	w3, w2
    2878:	2a0103e2 	mov	w2, w1
    287c:	52800001 	mov	w1, #0x0                   	// #0
    2880:	14000d02 	b	5c88 <wasm_instantiate>
    2884:	2a0403e5 	mov	w5, w4
    2888:	aa0303e4 	mov	x4, x3
    288c:	2a0203e3 	mov	w3, w2
    2890:	2a0103e2 	mov	w2, w1
    2894:	52800001 	mov	w1, #0x0                   	// #0
    2898:	140023f4 	b	b868 <aot_instantiate>
    289c:	00000000 	.inst	0x00000000 ; undefined

00000000000028a0 <wasm_runtime_deinstantiate_internal>:
wasm_runtime_deinstantiate_internal():
    28a0:	b9400002 	ldr	w2, [x0]
    28a4:	12001c21 	and	w1, w1, #0xff
    28a8:	34000082 	cbz	w2, 28b8 <wasm_runtime_deinstantiate_internal+0x18>
    28ac:	7100045f 	cmp	w2, #0x1
    28b0:	54000060 	b.eq	28bc <wasm_runtime_deinstantiate_internal+0x1c>  // b.none
    28b4:	d65f03c0 	ret
    28b8:	14000c08 	b	58d8 <wasm_deinstantiate>
    28bc:	14002281 	b	b2c0 <aot_deinstantiate>

00000000000028c0 <wasm_runtime_deinstantiate>:
wasm_runtime_deinstantiate():
    28c0:	b9400001 	ldr	w1, [x0]
    28c4:	34000081 	cbz	w1, 28d4 <wasm_runtime_deinstantiate+0x14>
    28c8:	7100043f 	cmp	w1, #0x1
    28cc:	54000060 	b.eq	28d8 <wasm_runtime_deinstantiate+0x18>  // b.none
    28d0:	d65f03c0 	ret
    28d4:	14000c01 	b	58d8 <wasm_deinstantiate>
    28d8:	52800001 	mov	w1, #0x0                   	// #0
    28dc:	14002279 	b	b2c0 <aot_deinstantiate>

00000000000028e0 <wasm_runtime_create_exec_env>:
wasm_runtime_create_exec_env():
    28e0:	14006ec2 	b	1e3e8 <wasm_exec_env_create>
    28e4:	00000000 	.inst	0x00000000 ; undefined

00000000000028e8 <wasm_runtime_destroy_exec_env>:
wasm_runtime_destroy_exec_env():
    28e8:	14006f06 	b	1e500 <wasm_exec_env_destroy>
    28ec:	00000000 	.inst	0x00000000 ; undefined

00000000000028f0 <wasm_runtime_init_thread_env>:
wasm_runtime_init_thread_env():
    28f0:	52800020 	mov	w0, #0x1                   	// #1
    28f4:	d65f03c0 	ret

00000000000028f8 <wasm_runtime_destroy_thread_env>:
wasm_runtime_destroy_thread_env():
    28f8:	d65f03c0 	ret
    28fc:	00000000 	.inst	0x00000000 ; undefined

0000000000002900 <wasm_runtime_get_module_inst>:
wasm_runtime_get_module_inst():
    2900:	14006f0a 	b	1e528 <wasm_exec_env_get_module_inst>
    2904:	00000000 	.inst	0x00000000 ; undefined

0000000000002908 <wasm_runtime_get_function_idx>:
wasm_runtime_get_function_idx():
    2908:	b9400002 	ldr	w2, [x0]
    290c:	340000e2 	cbz	w2, 2928 <wasm_runtime_get_function_idx+0x20>
    2910:	7100045f 	cmp	w2, #0x1
    2914:	12800000 	mov	w0, #0xffffffff            	// #-1
    2918:	54000040 	b.eq	2920 <wasm_runtime_get_function_idx+0x18>  // b.none
    291c:	d65f03c0 	ret
    2920:	b9400820 	ldr	w0, [x1, #8]
    2924:	d65f03c0 	ret
    2928:	f9401802 	ldr	x2, [x0, #48]
    292c:	b201f3e0 	mov	x0, #0xaaaaaaaaaaaaaaaa    	// #-6148914691236517206
    2930:	f2955560 	movk	x0, #0xaaab
    2934:	cb020021 	sub	x1, x1, x2
    2938:	9344fc21 	asr	x1, x1, #4
    293c:	1b007c20 	mul	w0, w1, w0
    2940:	d65f03c0 	ret
    2944:	00000000 	.inst	0x00000000 ; undefined

0000000000002948 <wasm_runtime_get_function_attachment>:
wasm_runtime_get_function_attachment():
    2948:	f9402800 	ldr	x0, [x0, #80]
    294c:	d65f03c0 	ret

0000000000002950 <wasm_runtime_set_user_data>:
wasm_runtime_set_user_data():
    2950:	f9002c01 	str	x1, [x0, #88]
    2954:	d65f03c0 	ret

0000000000002958 <wasm_runtime_get_user_data>:
wasm_runtime_get_user_data():
    2958:	f9402c00 	ldr	x0, [x0, #88]
    295c:	d65f03c0 	ret

0000000000002960 <wasm_runtime_get_function_type>:
wasm_runtime_get_function_type():
    2960:	aa0003e2 	mov	x2, x0
    2964:	35000101 	cbnz	w1, 2984 <wasm_runtime_get_function_type+0x24>
    2968:	f9401401 	ldr	x1, [x0, #40]
    296c:	39400002 	ldrb	w2, [x0]
    2970:	91004020 	add	x0, x1, #0x10
    2974:	7100005f 	cmp	w2, #0x0
    2978:	9a811000 	csel	x0, x0, x1, ne  // ne = any
    297c:	f9400000 	ldr	x0, [x0]
    2980:	d65f03c0 	ret
    2984:	7100043f 	cmp	w1, #0x1
    2988:	d2800000 	mov	x0, #0x0                   	// #0
    298c:	54ffffa1 	b.ne	2980 <wasm_runtime_get_function_type+0x20>  // b.any
    2990:	39403041 	ldrb	w1, [x2, #12]
    2994:	f9400840 	ldr	x0, [x2, #16]
    2998:	34ffff41 	cbz	w1, 2980 <wasm_runtime_get_function_type+0x20>
    299c:	f9400800 	ldr	x0, [x0, #16]
    29a0:	d65f03c0 	ret
    29a4:	00000000 	.inst	0x00000000 ; undefined

00000000000029a8 <wasm_runtime_lookup_function>:
wasm_runtime_lookup_function():
    29a8:	b9400003 	ldr	w3, [x0]
    29ac:	340000a3 	cbz	w3, 29c0 <wasm_runtime_lookup_function+0x18>
    29b0:	7100047f 	cmp	w3, #0x1
    29b4:	54000080 	b.eq	29c4 <wasm_runtime_lookup_function+0x1c>  // b.none
    29b8:	d2800000 	mov	x0, #0x0                   	// #0
    29bc:	d65f03c0 	ret
    29c0:	14000c10 	b	5a00 <wasm_lookup_function>
    29c4:	1400226f 	b	b380 <aot_lookup_function>

00000000000029c8 <wasm_runtime_call_wasm>:
wasm_runtime_call_wasm():
    29c8:	a9bd7bfd 	stp	x29, x30, [sp, #-48]!
    29cc:	910003fd 	mov	x29, sp
    29d0:	b40001a0 	cbz	x0, 2a04 <wasm_runtime_call_wasm+0x3c>
    29d4:	f9400804 	ldr	x4, [x0, #16]
    29d8:	a90153f3 	stp	x19, x20, [sp, #16]
    29dc:	aa0003f3 	mov	x19, x0
    29e0:	b4000104 	cbz	x4, 2a00 <wasm_runtime_call_wasm+0x38>
    29e4:	b94c7005 	ldr	w5, [x0, #3184]
    29e8:	340000c5 	cbz	w5, 2a00 <wasm_runtime_call_wasm+0x38>
    29ec:	f9463c06 	ldr	x6, [x0, #3192]
    29f0:	91322007 	add	x7, x0, #0xc88
    29f4:	8b2540e5 	add	x5, x7, w5, uxtw
    29f8:	eb0500df 	cmp	x6, x5
    29fc:	54000160 	b.eq	2a28 <wasm_runtime_call_wasm+0x60>  // b.none
    2a00:	a94153f3 	ldp	x19, x20, [sp, #16]
    2a04:	52800002 	mov	w2, #0x0                   	// #0
    2a08:	d2800001 	mov	x1, #0x0                   	// #0
    2a0c:	52800020 	mov	w0, #0x1                   	// #1
    2a10:	d00001a3 	adrp	x3, 38000 <__func__.6476+0x1b8>
    2a14:	91094063 	add	x3, x3, #0x250
    2a18:	94003550 	bl	ff58 <bh_log>
    2a1c:	52800000 	mov	w0, #0x0                   	// #0
    2a20:	a8c37bfd 	ldp	x29, x30, [sp], #48
    2a24:	d65f03c0 	ret
    2a28:	f9464005 	ldr	x5, [x0, #3200]
    2a2c:	a9025bf5 	stp	x21, x22, [sp, #32]
    2a30:	eb0500df 	cmp	x6, x5
    2a34:	54000363 	b.cc	2aa0 <wasm_runtime_call_wasm+0xd8>  // b.lo, b.ul, b.last
    2a38:	b9400084 	ldr	w4, [x4]
    2a3c:	aa0103f4 	mov	x20, x1
    2a40:	2a0203f5 	mov	w21, w2
    2a44:	aa0303f6 	mov	x22, x3
    2a48:	34000104 	cbz	w4, 2a68 <wasm_runtime_call_wasm+0xa0>
    2a4c:	7100049f 	cmp	w4, #0x1
    2a50:	52800000 	mov	w0, #0x0                   	// #0
    2a54:	54000160 	b.eq	2a80 <wasm_runtime_call_wasm+0xb8>  // b.none
    2a58:	a94153f3 	ldp	x19, x20, [sp, #16]
    2a5c:	a9425bf5 	ldp	x21, x22, [sp, #32]
    2a60:	a8c37bfd 	ldp	x29, x30, [sp], #48
    2a64:	d65f03c0 	ret
    2a68:	94000c06 	bl	5a80 <wasm_call_function>
    2a6c:	12001c00 	and	w0, w0, #0xff
    2a70:	f9400a61 	ldr	x1, [x19, #16]
    2a74:	b9400024 	ldr	w4, [x1]
    2a78:	7100049f 	cmp	w4, #0x1
    2a7c:	54fffee1 	b.ne	2a58 <wasm_runtime_call_wasm+0x90>  // b.any
    2a80:	aa1603e3 	mov	x3, x22
    2a84:	2a1503e2 	mov	w2, w21
    2a88:	aa1403e1 	mov	x1, x20
    2a8c:	aa1303e0 	mov	x0, x19
    2a90:	a94153f3 	ldp	x19, x20, [sp, #16]
    2a94:	a9425bf5 	ldp	x21, x22, [sp, #32]
    2a98:	a8c37bfd 	ldp	x29, x30, [sp], #48
    2a9c:	1400225b 	b	b408 <aot_call_function>
    2aa0:	a94153f3 	ldp	x19, x20, [sp, #16]
    2aa4:	a9425bf5 	ldp	x21, x22, [sp, #32]
    2aa8:	17ffffd7 	b	2a04 <wasm_runtime_call_wasm+0x3c>
    2aac:	00000000 	.inst	0x00000000 ; undefined

0000000000002ab0 <wasm_runtime_create_exec_env_and_call_wasm>:
wasm_runtime_create_exec_env_and_call_wasm():
    2ab0:	a9bd7bfd 	stp	x29, x30, [sp, #-48]!
    2ab4:	52800005 	mov	w5, #0x0                   	// #0
    2ab8:	910003fd 	mov	x29, sp
    2abc:	b9400004 	ldr	w4, [x0]
    2ac0:	a90153f3 	stp	x19, x20, [sp, #16]
    2ac4:	aa0003f3 	mov	x19, x0
    2ac8:	aa0103f4 	mov	x20, x1
    2acc:	a9025bf5 	stp	x21, x22, [sp, #32]
    2ad0:	2a0203f5 	mov	w21, w2
    2ad4:	aa0303f6 	mov	x22, x3
    2ad8:	34000104 	cbz	w4, 2af8 <wasm_runtime_create_exec_env_and_call_wasm+0x48>
    2adc:	7100049f 	cmp	w4, #0x1
    2ae0:	54000160 	b.eq	2b0c <wasm_runtime_create_exec_env_and_call_wasm+0x5c>  // b.none
    2ae4:	2a0503e0 	mov	w0, w5
    2ae8:	a94153f3 	ldp	x19, x20, [sp, #16]
    2aec:	a9425bf5 	ldp	x21, x22, [sp, #32]
    2af0:	a8c37bfd 	ldp	x29, x30, [sp], #48
    2af4:	d65f03c0 	ret
    2af8:	94000c1a 	bl	5b60 <wasm_create_exec_env_and_call_function>
    2afc:	12001c05 	and	w5, w0, #0xff
    2b00:	b9400264 	ldr	w4, [x19]
    2b04:	7100049f 	cmp	w4, #0x1
    2b08:	54fffee1 	b.ne	2ae4 <wasm_runtime_create_exec_env_and_call_wasm+0x34>  // b.any
    2b0c:	aa1603e3 	mov	x3, x22
    2b10:	2a1503e2 	mov	w2, w21
    2b14:	aa1403e1 	mov	x1, x20
    2b18:	aa1303e0 	mov	x0, x19
    2b1c:	a94153f3 	ldp	x19, x20, [sp, #16]
    2b20:	a9425bf5 	ldp	x21, x22, [sp, #32]
    2b24:	a8c37bfd 	ldp	x29, x30, [sp], #48
    2b28:	1400279a 	b	c990 <aot_create_exec_env_and_call_function>
    2b2c:	00000000 	.inst	0x00000000 ; undefined

0000000000002b30 <wasm_runtime_create_exec_env_singleton>:
wasm_runtime_create_exec_env_singleton():
    2b30:	b9400001 	ldr	w1, [x0]
    2b34:	340000a1 	cbz	w1, 2b48 <wasm_runtime_create_exec_env_singleton+0x18>
    2b38:	7100043f 	cmp	w1, #0x1
    2b3c:	54000080 	b.eq	2b4c <wasm_runtime_create_exec_env_singleton+0x1c>  // b.none
    2b40:	52800000 	mov	w0, #0x0                   	// #0
    2b44:	d65f03c0 	ret
    2b48:	14001072 	b	6d10 <wasm_create_exec_env_singleton>
    2b4c:	140021cf 	b	b288 <aot_create_exec_env_singleton>

0000000000002b50 <wasm_runtime_get_exec_env_singleton>:
wasm_runtime_get_exec_env_singleton():
    2b50:	aa0003e1 	mov	x1, x0
    2b54:	b9400000 	ldr	w0, [x0]
    2b58:	340000e0 	cbz	w0, 2b74 <wasm_runtime_get_exec_env_singleton+0x24>
    2b5c:	7100041f 	cmp	w0, #0x1
    2b60:	d2800000 	mov	x0, #0x0                   	// #0
    2b64:	54000040 	b.eq	2b6c <wasm_runtime_get_exec_env_singleton+0x1c>  // b.none
    2b68:	d65f03c0 	ret
    2b6c:	f9408420 	ldr	x0, [x1, #264]
    2b70:	d65f03c0 	ret
    2b74:	f9404420 	ldr	x0, [x1, #136]
    2b78:	d65f03c0 	ret
    2b7c:	00000000 	.inst	0x00000000 ; undefined

0000000000002b80 <wasm_runtime_set_exception>:
wasm_runtime_set_exception():
    2b80:	b9400002 	ldr	w2, [x0]
    2b84:	34000082 	cbz	w2, 2b94 <wasm_runtime_set_exception+0x14>
    2b88:	7100045f 	cmp	w2, #0x1
    2b8c:	54000060 	b.eq	2b98 <wasm_runtime_set_exception+0x18>  // b.none
    2b90:	d65f03c0 	ret
    2b94:	1400106d 	b	6d48 <wasm_set_exception>
    2b98:	140027a6 	b	ca30 <aot_set_exception>
    2b9c:	00000000 	.inst	0x00000000 ; undefined

0000000000002ba0 <wasm_runtime_get_indirect_function>:
wasm_runtime_get_indirect_function():
    2ba0:	a9bc7bfd 	stp	x29, x30, [sp, #-64]!
    2ba4:	910003fd 	mov	x29, sp
    2ba8:	b9400003 	ldr	w3, [x0]
    2bac:	a90153f3 	stp	x19, x20, [sp, #16]
    2bb0:	34000423 	cbz	w3, 2c34 <wasm_runtime_get_indirect_function+0x94>
    2bb4:	7100047f 	cmp	w3, #0x1
    2bb8:	d2800014 	mov	x20, #0x0                   	// #0
    2bbc:	540000a0 	b.eq	2bd0 <wasm_runtime_get_indirect_function+0x30>  // b.none
    2bc0:	aa1403e0 	mov	x0, x20
    2bc4:	a94153f3 	ldp	x19, x20, [sp, #16]
    2bc8:	a8c47bfd 	ldp	x29, x30, [sp], #64
    2bcc:	d65f03c0 	ret
    2bd0:	aa0003f3 	mov	x19, x0
    2bd4:	9100e3e5 	add	x5, sp, #0x38
    2bd8:	9100b3e4 	add	x4, sp, #0x2c
    2bdc:	9100c3e3 	add	x3, sp, #0x30
    2be0:	94002b50 	bl	d920 <aot_get_indirect_function>
    2be4:	72001c1f 	tst	w0, #0xff
    2be8:	54fffec0 	b.eq	2bc0 <wasm_runtime_get_indirect_function+0x20>  // b.none
    2bec:	52800400 	mov	w0, #0x20                  	// #32
    2bf0:	97fffdfc 	bl	23e0 <wasm_runtime_malloc>
    2bf4:	aa0003f4 	mov	x20, x0
    2bf8:	b40002a0 	cbz	x0, 2c4c <wasm_runtime_get_indirect_function+0xac>
    2bfc:	91003401 	add	x1, x0, #0xd
    2c00:	b9402fe3 	ldr	w3, [sp, #44]
    2c04:	f00001a0 	adrp	x0, 39000 <__func__.8238+0xa50>
    2c08:	91194000 	add	x0, x0, #0x650
    2c0c:	a9007c3f 	stp	xzr, xzr, [x1]
    2c10:	a94307e2 	ldp	x2, x1, [sp, #48]
    2c14:	f9000280 	str	x0, [x20]
    2c18:	b9000a83 	str	w3, [x20, #8]
    2c1c:	aa1403e0 	mov	x0, x20
    2c20:	3900329f 	strb	wzr, [x20, #12]
    2c24:	a9010a81 	stp	x1, x2, [x20, #16]
    2c28:	a94153f3 	ldp	x19, x20, [sp, #16]
    2c2c:	a8c47bfd 	ldp	x29, x30, [sp], #64
    2c30:	d65f03c0 	ret
    2c34:	9400125b 	bl	75a0 <wasm_get_indirect_function>
    2c38:	aa0003f4 	mov	x20, x0
    2c3c:	aa1403e0 	mov	x0, x20
    2c40:	a94153f3 	ldp	x19, x20, [sp, #16]
    2c44:	a8c47bfd 	ldp	x29, x30, [sp], #64
    2c48:	d65f03c0 	ret
    2c4c:	aa1303e0 	mov	x0, x19
    2c50:	b00001a1 	adrp	x1, 37000 <signals.7908+0xf0>
    2c54:	913c8021 	add	x1, x1, #0xf20
    2c58:	97ffffca 	bl	2b80 <wasm_runtime_set_exception>
    2c5c:	17ffffd9 	b	2bc0 <wasm_runtime_get_indirect_function+0x20>

0000000000002c60 <wasm_runtime_call_wasm_a>:
wasm_runtime_call_wasm_a():
    2c60:	a9b97bfd 	stp	x29, x30, [sp, #-112]!
    2c64:	aa0103e6 	mov	x6, x1
    2c68:	910003fd 	mov	x29, sp
    2c6c:	a9046bf9 	stp	x25, x26, [sp, #64]
    2c70:	f940081a 	ldr	x26, [x0, #16]
    2c74:	a90153f3 	stp	x19, x20, [sp, #16]
    2c78:	aa0303f4 	mov	x20, x3
    2c7c:	a9025bf5 	stp	x21, x22, [sp, #32]
    2c80:	2a0403f3 	mov	w19, w4
    2c84:	b9400343 	ldr	w3, [x26]
    2c88:	a90573fb 	stp	x27, x28, [sp, #80]
    2c8c:	aa0503f6 	mov	x22, x5
    2c90:	aa0003fc 	mov	x28, x0
    2c94:	34000463 	cbz	w3, 2d20 <wasm_runtime_call_wasm_a+0xc0>
    2c98:	7100047f 	cmp	w3, #0x1
    2c9c:	54000120 	b.eq	2cc0 <wasm_runtime_call_wasm_a+0x60>  // b.none
    2ca0:	d00001a3 	adrp	x3, 38000 <__func__.6476+0x1b8>
    2ca4:	52800002 	mov	w2, #0x0                   	// #0
    2ca8:	9109c063 	add	x3, x3, #0x270
    2cac:	d2800001 	mov	x1, #0x0                   	// #0
    2cb0:	52800020 	mov	w0, #0x1                   	// #1
    2cb4:	52800013 	mov	w19, #0x0                   	// #0
    2cb8:	940034a8 	bl	ff58 <bh_log>
    2cbc:	14000012 	b	2d04 <wasm_runtime_call_wasm_a+0xa4>
    2cc0:	39403020 	ldrb	w0, [x1, #12]
    2cc4:	f940083b 	ldr	x27, [x1, #16]
    2cc8:	35000d60 	cbnz	w0, 2e74 <wasm_runtime_call_wasm_a+0x214>
    2ccc:	b4fffebb 	cbz	x27, 2ca0 <wasm_runtime_call_wasm_a+0x40>
    2cd0:	79400760 	ldrh	w0, [x27, #2]
    2cd4:	6b02001f 	cmp	w0, w2
    2cd8:	54000b21 	b.ne	2e3c <wasm_runtime_call_wasm_a+0x1dc>  // b.any
    2cdc:	79400360 	ldrh	w0, [x27]
    2ce0:	6b13001f 	cmp	w0, w19
    2ce4:	540002c0 	b.eq	2d3c <wasm_runtime_call_wasm_a+0xdc>  // b.none
    2ce8:	d00001a3 	adrp	x3, 38000 <__func__.6476+0x1b8>
    2cec:	52800002 	mov	w2, #0x0                   	// #0
    2cf0:	910c4063 	add	x3, x3, #0x310
    2cf4:	d2800001 	mov	x1, #0x0                   	// #0
    2cf8:	52800020 	mov	w0, #0x1                   	// #1
    2cfc:	52800013 	mov	w19, #0x0                   	// #0
    2d00:	94003496 	bl	ff58 <bh_log>
    2d04:	2a1303e0 	mov	w0, w19
    2d08:	a94153f3 	ldp	x19, x20, [sp, #16]
    2d0c:	a9425bf5 	ldp	x21, x22, [sp, #32]
    2d10:	a9446bf9 	ldp	x25, x26, [sp, #64]
    2d14:	a94573fb 	ldp	x27, x28, [sp, #80]
    2d18:	a8c77bfd 	ldp	x29, x30, [sp], #112
    2d1c:	d65f03c0 	ret
    2d20:	f94014c0 	ldr	x0, [x6, #40]
    2d24:	39400021 	ldrb	w1, [x1]
    2d28:	91004003 	add	x3, x0, #0x10
    2d2c:	7100003f 	cmp	w1, #0x0
    2d30:	9a801063 	csel	x3, x3, x0, ne  // ne = any
    2d34:	f940007b 	ldr	x27, [x3]
    2d38:	17ffffe5 	b	2ccc <wasm_runtime_call_wasm_a+0x6c>
    2d3c:	79400b60 	ldrh	w0, [x27, #4]
    2d40:	52800041 	mov	w1, #0x2                   	// #2
    2d44:	79400f62 	ldrh	w2, [x27, #6]
    2d48:	a90363f7 	stp	x23, x24, [sp, #48]
    2d4c:	6b00005f 	cmp	w2, w0
    2d50:	1a802042 	csel	w2, w2, w0, cs  // cs = hs, nlast
    2d54:	f90037e6 	str	x6, [sp, #104]
    2d58:	6b01005f 	cmp	w2, w1
    2d5c:	1a812042 	csel	w2, w2, w1, cs  // cs = hs, nlast
    2d60:	531e7455 	lsl	w21, w2, #2
    2d64:	2a1503e0 	mov	w0, w21
    2d68:	97fffd9e 	bl	23e0 <wasm_runtime_malloc>
    2d6c:	aa0003f7 	mov	x23, x0
    2d70:	f94037e6 	ldr	x6, [sp, #104]
    2d74:	b4000f40 	cbz	x0, 2f5c <wasm_runtime_call_wasm_a+0x2fc>
    2d78:	2a1503e2 	mov	w2, w21
    2d7c:	52800001 	mov	w1, #0x0                   	// #0
    2d80:	f90037e6 	str	x6, [sp, #104]
    2d84:	9400ad40 	bl	2e284 <memset@plt>
    2d88:	f94037e6 	ldr	x6, [sp, #104]
    2d8c:	34000373 	cbz	w19, 2df8 <wasm_runtime_call_wasm_a+0x198>
    2d90:	51000663 	sub	w3, w19, #0x1
    2d94:	910062c0 	add	x0, x22, #0x18
    2d98:	910022c5 	add	x5, x22, #0x8
    2d9c:	52800013 	mov	w19, #0x0                   	// #0
    2da0:	8b235003 	add	x3, x0, w3, uxtw #4
    2da4:	1400000a 	b	2dcc <wasm_runtime_call_wasm_a+0x16c>
    2da8:	f94000a0 	ldr	x0, [x5]
    2dac:	11000661 	add	w1, w19, #0x1
    2db0:	b8335ae0 	str	w0, [x23, w19, uxtw #2]
    2db4:	11000a73 	add	w19, w19, #0x2
    2db8:	d360fc00 	lsr	x0, x0, #32
    2dbc:	b8215ae0 	str	w0, [x23, w1, uxtw #2]
    2dc0:	910040a5 	add	x5, x5, #0x10
    2dc4:	eb05007f 	cmp	x3, x5
    2dc8:	54000180 	b.eq	2df8 <wasm_runtime_call_wasm_a+0x198>  // b.none
    2dcc:	385f80a2 	ldurb	w2, [x5, #-8]
    2dd0:	7100085f 	cmp	w2, #0x2
    2dd4:	54000060 	b.eq	2de0 <wasm_runtime_call_wasm_a+0x180>  // b.none
    2dd8:	540009c8 	b.hi	2f10 <wasm_runtime_call_wasm_a+0x2b0>  // b.pmore
    2ddc:	35fffe62 	cbnz	w2, 2da8 <wasm_runtime_call_wasm_a+0x148>
    2de0:	b94000a0 	ldr	w0, [x5]
    2de4:	910040a5 	add	x5, x5, #0x10
    2de8:	b8335ae0 	str	w0, [x23, w19, uxtw #2]
    2dec:	eb05007f 	cmp	x3, x5
    2df0:	11000673 	add	w19, w19, #0x1
    2df4:	54fffec1 	b.ne	2dcc <wasm_runtime_call_wasm_a+0x16c>  // b.any
    2df8:	2a1303e2 	mov	w2, w19
    2dfc:	aa0603e1 	mov	x1, x6
    2e00:	aa1c03e0 	mov	x0, x28
    2e04:	aa1703e3 	mov	x3, x23
    2e08:	97fffef0 	bl	29c8 <wasm_runtime_call_wasm>
    2e0c:	72001c13 	ands	w19, w0, #0xff
    2e10:	54000361 	b.ne	2e7c <wasm_runtime_call_wasm_a+0x21c>  // b.any
    2e14:	aa1703e0 	mov	x0, x23
    2e18:	97fffdb4 	bl	24e8 <wasm_runtime_free>
    2e1c:	2a1303e0 	mov	w0, w19
    2e20:	a94153f3 	ldp	x19, x20, [sp, #16]
    2e24:	a9425bf5 	ldp	x21, x22, [sp, #32]
    2e28:	a94363f7 	ldp	x23, x24, [sp, #48]
    2e2c:	a9446bf9 	ldp	x25, x26, [sp, #64]
    2e30:	a94573fb 	ldp	x27, x28, [sp, #80]
    2e34:	a8c77bfd 	ldp	x29, x30, [sp], #112
    2e38:	d65f03c0 	ret
    2e3c:	52800002 	mov	w2, #0x0                   	// #0
    2e40:	d2800001 	mov	x1, #0x0                   	// #0
    2e44:	52800020 	mov	w0, #0x1                   	// #1
    2e48:	52800013 	mov	w19, #0x0                   	// #0
    2e4c:	d00001a3 	adrp	x3, 38000 <__func__.6476+0x1b8>
    2e50:	910b2063 	add	x3, x3, #0x2c8
    2e54:	94003441 	bl	ff58 <bh_log>
    2e58:	2a1303e0 	mov	w0, w19
    2e5c:	a94153f3 	ldp	x19, x20, [sp, #16]
    2e60:	a9425bf5 	ldp	x21, x22, [sp, #32]
    2e64:	a9446bf9 	ldp	x25, x26, [sp, #64]
    2e68:	a94573fb 	ldp	x27, x28, [sp, #80]
    2e6c:	a8c77bfd 	ldp	x29, x30, [sp], #112
    2e70:	d65f03c0 	ret
    2e74:	f9400b7b 	ldr	x27, [x27, #16]
    2e78:	17ffff95 	b	2ccc <wasm_runtime_call_wasm_a+0x6c>
    2e7c:	79400763 	ldrh	w3, [x27, #2]
    2e80:	34fffca3 	cbz	w3, 2e14 <wasm_runtime_call_wasm_a+0x1b4>
    2e84:	79400364 	ldrh	w4, [x27]
    2e88:	91002282 	add	x2, x20, #0x8
    2e8c:	52800005 	mov	w5, #0x0                   	// #0
    2e90:	52800028 	mov	w8, #0x1                   	// #1
    2e94:	0b040063 	add	w3, w3, w4
    2e98:	52800067 	mov	w7, #0x3                   	// #3
    2e9c:	52800046 	mov	w6, #0x2                   	// #2
    2ea0:	1400000c 	b	2ed0 <wasm_runtime_call_wasm_a+0x270>
    2ea4:	7101f43f 	cmp	w1, #0x7d
    2ea8:	540000c1 	b.ne	2ec0 <wasm_runtime_call_wasm_a+0x260>  // b.any
    2eac:	b8655ae0 	ldr	w0, [x23, w5, uxtw #2]
    2eb0:	110004a5 	add	w5, w5, #0x1
    2eb4:	381f8046 	sturb	w6, [x2, #-8]
    2eb8:	b9000040 	str	w0, [x2]
    2ebc:	d503201f 	nop
    2ec0:	11000484 	add	w4, w4, #0x1
    2ec4:	91004042 	add	x2, x2, #0x10
    2ec8:	6b04007f 	cmp	w3, w4
    2ecc:	54fffa40 	b.eq	2e14 <wasm_runtime_call_wasm_a+0x1b4>  // b.none
    2ed0:	8b244360 	add	x0, x27, w4, uxtw
    2ed4:	39402001 	ldrb	w1, [x0, #8]
    2ed8:	7101f83f 	cmp	w1, #0x7e
    2edc:	540002e0 	b.eq	2f38 <wasm_runtime_call_wasm_a+0x2d8>  // b.none
    2ee0:	540001e8 	b.hi	2f1c <wasm_runtime_call_wasm_a+0x2bc>  // b.pmore
    2ee4:	7101f03f 	cmp	w1, #0x7c
    2ee8:	54fffde1 	b.ne	2ea4 <wasm_runtime_call_wasm_a+0x244>  // b.any
    2eec:	110004a0 	add	w0, w5, #0x1
    2ef0:	b8655ae1 	ldr	w1, [x23, w5, uxtw #2]
    2ef4:	110008a5 	add	w5, w5, #0x2
    2ef8:	b8605ae0 	ldr	w0, [x23, w0, uxtw #2]
    2efc:	b3407c39 	bfxil	x25, x1, #0, #32
    2f00:	381f8047 	sturb	w7, [x2, #-8]
    2f04:	b3607c19 	bfi	x25, x0, #32, #32
    2f08:	f9000059 	str	x25, [x2]
    2f0c:	17ffffed 	b	2ec0 <wasm_runtime_call_wasm_a+0x260>
    2f10:	71000c5f 	cmp	w2, #0x3
    2f14:	54fff4a0 	b.eq	2da8 <wasm_runtime_call_wasm_a+0x148>  // b.none
    2f18:	17ffffaa 	b	2dc0 <wasm_runtime_call_wasm_a+0x160>
    2f1c:	7101fc3f 	cmp	w1, #0x7f
    2f20:	54fffd01 	b.ne	2ec0 <wasm_runtime_call_wasm_a+0x260>  // b.any
    2f24:	381f805f 	sturb	wzr, [x2, #-8]
    2f28:	b8655ae0 	ldr	w0, [x23, w5, uxtw #2]
    2f2c:	110004a5 	add	w5, w5, #0x1
    2f30:	b9000040 	str	w0, [x2]
    2f34:	17ffffe3 	b	2ec0 <wasm_runtime_call_wasm_a+0x260>
    2f38:	110004a0 	add	w0, w5, #0x1
    2f3c:	b8655ae1 	ldr	w1, [x23, w5, uxtw #2]
    2f40:	110008a5 	add	w5, w5, #0x2
    2f44:	b8605ae0 	ldr	w0, [x23, w0, uxtw #2]
    2f48:	b3407c38 	bfxil	x24, x1, #0, #32
    2f4c:	381f8048 	sturb	w8, [x2, #-8]
    2f50:	b3607c18 	bfi	x24, x0, #32, #32
    2f54:	f9000058 	str	x24, [x2]
    2f58:	17ffffda 	b	2ec0 <wasm_runtime_call_wasm_a+0x260>
    2f5c:	b00001b3 	adrp	x19, 37000 <signals.7908+0xf0>
    2f60:	913c8273 	add	x19, x19, #0xf20
    2f64:	aa1a03e0 	mov	x0, x26
    2f68:	aa1303e1 	mov	x1, x19
    2f6c:	97ffff05 	bl	2b80 <wasm_runtime_set_exception>
    2f70:	f9400b80 	ldr	x0, [x28, #16]
    2f74:	aa1303e1 	mov	x1, x19
    2f78:	52800013 	mov	w19, #0x0                   	// #0
    2f7c:	97ffff01 	bl	2b80 <wasm_runtime_set_exception>
    2f80:	2a1303e0 	mov	w0, w19
    2f84:	a94153f3 	ldp	x19, x20, [sp, #16]
    2f88:	a9425bf5 	ldp	x21, x22, [sp, #32]
    2f8c:	a94363f7 	ldp	x23, x24, [sp, #48]
    2f90:	a9446bf9 	ldp	x25, x26, [sp, #64]
    2f94:	a94573fb 	ldp	x27, x28, [sp, #80]
    2f98:	a8c77bfd 	ldp	x29, x30, [sp], #112
    2f9c:	d65f03c0 	ret

0000000000002fa0 <wasm_runtime_call_wasm_v>:
wasm_runtime_call_wasm_v():
    2fa0:	a9af7bfd 	stp	x29, x30, [sp, #-272]!
    2fa4:	910003fd 	mov	x29, sp
    2fa8:	3d801fe0 	str	q0, [sp, #112]
    2fac:	3d8023e1 	str	q1, [sp, #128]
    2fb0:	a90363f7 	stp	x23, x24, [sp, #48]
    2fb4:	aa0003f8 	mov	x24, x0
    2fb8:	aa0103f7 	mov	x23, x1
    2fbc:	f9400800 	ldr	x0, [x0, #16]
    2fc0:	3d8027e2 	str	q2, [sp, #144]
    2fc4:	3d802be3 	str	q3, [sp, #160]
    2fc8:	3d802fe4 	str	q4, [sp, #176]
    2fcc:	3d8033e5 	str	q5, [sp, #192]
    2fd0:	3d8037e6 	str	q6, [sp, #208]
    2fd4:	3d803be7 	str	q7, [sp, #224]
    2fd8:	a90f9be5 	stp	x5, x6, [sp, #248]
    2fdc:	f90087e7 	str	x7, [sp, #264]
    2fe0:	a90153f3 	stp	x19, x20, [sp, #16]
    2fe4:	2a0403f4 	mov	w20, w4
    2fe8:	b9400004 	ldr	w4, [x0]
    2fec:	a9025bf5 	stp	x21, x22, [sp, #32]
    2ff0:	2a0203f5 	mov	w21, w2
    2ff4:	aa0303f6 	mov	x22, x3
    2ff8:	340003e4 	cbz	w4, 3074 <wasm_runtime_call_wasm_v+0xd4>
    2ffc:	7100049f 	cmp	w4, #0x1
    3000:	54000120 	b.eq	3024 <wasm_runtime_call_wasm_v+0x84>  // b.none
    3004:	b00001a3 	adrp	x3, 38000 <__func__.6476+0x1b8>
    3008:	52800002 	mov	w2, #0x0                   	// #0
    300c:	9109c063 	add	x3, x3, #0x270
    3010:	d2800001 	mov	x1, #0x0                   	// #0
    3014:	52800020 	mov	w0, #0x1                   	// #1
    3018:	52800013 	mov	w19, #0x0                   	// #0
    301c:	940033cf 	bl	ff58 <bh_log>
    3020:	1400000f 	b	305c <wasm_runtime_call_wasm_v+0xbc>
    3024:	39403020 	ldrb	w0, [x1, #12]
    3028:	f9400833 	ldr	x19, [x1, #16]
    302c:	35001320 	cbnz	w0, 3290 <wasm_runtime_call_wasm_v+0x2f0>
    3030:	b4fffeb3 	cbz	x19, 3004 <wasm_runtime_call_wasm_v+0x64>
    3034:	79400260 	ldrh	w0, [x19]
    3038:	6b14001f 	cmp	w0, w20
    303c:	540002a0 	b.eq	3090 <wasm_runtime_call_wasm_v+0xf0>  // b.none
    3040:	b00001a3 	adrp	x3, 38000 <__func__.6476+0x1b8>
    3044:	52800002 	mov	w2, #0x0                   	// #0
    3048:	910c4063 	add	x3, x3, #0x310
    304c:	d2800001 	mov	x1, #0x0                   	// #0
    3050:	52800020 	mov	w0, #0x1                   	// #1
    3054:	52800013 	mov	w19, #0x0                   	// #0
    3058:	940033c0 	bl	ff58 <bh_log>
    305c:	2a1303e0 	mov	w0, w19
    3060:	a94153f3 	ldp	x19, x20, [sp, #16]
    3064:	a9425bf5 	ldp	x21, x22, [sp, #32]
    3068:	a94363f7 	ldp	x23, x24, [sp, #48]
    306c:	a8d17bfd 	ldp	x29, x30, [sp], #272
    3070:	d65f03c0 	ret
    3074:	39400022 	ldrb	w2, [x1]
    3078:	f9401421 	ldr	x1, [x1, #40]
    307c:	7100005f 	cmp	w2, #0x0
    3080:	91004020 	add	x0, x1, #0x10
    3084:	9a811000 	csel	x0, x0, x1, ne  // ne = any
    3088:	f9400013 	ldr	x19, [x0]
    308c:	17ffffe9 	b	3030 <wasm_runtime_call_wasm_v+0x90>
    3090:	a9046bf9 	stp	x25, x26, [sp, #64]
    3094:	d37c7e9a 	ubfiz	x26, x20, #4, #32
    3098:	2a1a03e0 	mov	w0, w26
    309c:	97fffcd1 	bl	23e0 <wasm_runtime_malloc>
    30a0:	aa0003f9 	mov	x25, x0
    30a4:	b40011a0 	cbz	x0, 32d8 <wasm_runtime_call_wasm_v+0x338>
    30a8:	aa1a03e2 	mov	x2, x26
    30ac:	52800001 	mov	w1, #0x0                   	// #0
    30b0:	9400ac75 	bl	2e284 <memset@plt>
    30b4:	9103c3ea 	add	x10, sp, #0xf0
    30b8:	910443e0 	add	x0, sp, #0x110
    30bc:	128002e1 	mov	w1, #0xffffffe8            	// #-24
    30c0:	12800fe2 	mov	w2, #0xffffff80            	// #-128
    30c4:	a90503e0 	stp	x0, x0, [sp, #80]
    30c8:	f90033ea 	str	x10, [sp, #96]
    30cc:	290d0be1 	stp	w1, w2, [sp, #104]
    30d0:	340005f4 	cbz	w20, 318c <wasm_runtime_call_wasm_v+0x1ec>
    30d4:	51000684 	sub	w4, w20, #0x1
    30d8:	910443ee 	add	x14, sp, #0x110
    30dc:	91002484 	add	x4, x4, #0x9
    30e0:	91002266 	add	x6, x19, #0x8
    30e4:	8b040264 	add	x4, x19, x4
    30e8:	aa0e03e9 	mov	x9, x14
    30ec:	91002328 	add	x8, x25, #0x8
    30f0:	52800005 	mov	w5, #0x0                   	// #0
    30f4:	52800003 	mov	w3, #0x0                   	// #0
    30f8:	5280002d 	mov	w13, #0x1                   	// #1
    30fc:	5280006c 	mov	w12, #0x3                   	// #3
    3100:	5280004b 	mov	w11, #0x2                   	// #2
    3104:	1400000e 	b	313c <wasm_runtime_call_wasm_v+0x19c>
    3108:	7101f4ff 	cmp	w7, #0x7d
    310c:	54000101 	b.ne	312c <wasm_runtime_call_wasm_v+0x18c>  // b.any
    3110:	381f810b 	sturb	w11, [x8, #-8]
    3114:	37f809e2 	tbnz	w2, #31, 3250 <wasm_runtime_call_wasm_v+0x2b0>
    3118:	aa0903e0 	mov	x0, x9
    311c:	91002129 	add	x9, x9, #0x8
    3120:	fd400000 	ldr	d0, [x0]
    3124:	1e624000 	fcvt	s0, d0
    3128:	bd000100 	str	s0, [x8]
    312c:	910004c6 	add	x6, x6, #0x1
    3130:	91004108 	add	x8, x8, #0x10
    3134:	eb0400df 	cmp	x6, x4
    3138:	54000220 	b.eq	317c <wasm_runtime_call_wasm_v+0x1dc>  // b.none
    313c:	394000c7 	ldrb	w7, [x6]
    3140:	7101f8ff 	cmp	w7, #0x7e
    3144:	54000580 	b.eq	31f4 <wasm_runtime_call_wasm_v+0x254>  // b.none
    3148:	54000448 	b.hi	31d0 <wasm_runtime_call_wasm_v+0x230>  // b.pmore
    314c:	7101f0ff 	cmp	w7, #0x7c
    3150:	54fffdc1 	b.ne	3108 <wasm_runtime_call_wasm_v+0x168>  // b.any
    3154:	381f810c 	sturb	w12, [x8, #-8]
    3158:	37f805c2 	tbnz	w2, #31, 3210 <wasm_runtime_call_wasm_v+0x270>
    315c:	aa0903e0 	mov	x0, x9
    3160:	91002129 	add	x9, x9, #0x8
    3164:	fd400000 	ldr	d0, [x0]
    3168:	910004c6 	add	x6, x6, #0x1
    316c:	91004108 	add	x8, x8, #0x10
    3170:	eb0400df 	cmp	x6, x4
    3174:	fc1f0100 	stur	d0, [x8, #-16]
    3178:	54fffe21 	b.ne	313c <wasm_runtime_call_wasm_v+0x19c>  // b.any
    317c:	34000043 	cbz	w3, 3184 <wasm_runtime_call_wasm_v+0x1e4>
    3180:	b9006be1 	str	w1, [sp, #104]
    3184:	34000045 	cbz	w5, 318c <wasm_runtime_call_wasm_v+0x1ec>
    3188:	b9006fe2 	str	w2, [sp, #108]
    318c:	2a1403e4 	mov	w4, w20
    3190:	aa1603e3 	mov	x3, x22
    3194:	2a1503e2 	mov	w2, w21
    3198:	aa1703e1 	mov	x1, x23
    319c:	aa1903e5 	mov	x5, x25
    31a0:	aa1803e0 	mov	x0, x24
    31a4:	97fffeaf 	bl	2c60 <wasm_runtime_call_wasm_a>
    31a8:	12001c13 	and	w19, w0, #0xff
    31ac:	aa1903e0 	mov	x0, x25
    31b0:	97fffcce 	bl	24e8 <wasm_runtime_free>
    31b4:	2a1303e0 	mov	w0, w19
    31b8:	a94153f3 	ldp	x19, x20, [sp, #16]
    31bc:	a9425bf5 	ldp	x21, x22, [sp, #32]
    31c0:	a94363f7 	ldp	x23, x24, [sp, #48]
    31c4:	a9446bf9 	ldp	x25, x26, [sp, #64]
    31c8:	a8d17bfd 	ldp	x29, x30, [sp], #272
    31cc:	d65f03c0 	ret
    31d0:	7101fcff 	cmp	w7, #0x7f
    31d4:	54fffac1 	b.ne	312c <wasm_runtime_call_wasm_v+0x18c>  // b.any
    31d8:	381f811f 	sturb	wzr, [x8, #-8]
    31dc:	37f802a1 	tbnz	w1, #31, 3230 <wasm_runtime_call_wasm_v+0x290>
    31e0:	aa0903e0 	mov	x0, x9
    31e4:	91002129 	add	x9, x9, #0x8
    31e8:	b9400000 	ldr	w0, [x0]
    31ec:	b9000100 	str	w0, [x8]
    31f0:	17ffffcf 	b	312c <wasm_runtime_call_wasm_v+0x18c>
    31f4:	381f810d 	sturb	w13, [x8, #-8]
    31f8:	37f803c1 	tbnz	w1, #31, 3270 <wasm_runtime_call_wasm_v+0x2d0>
    31fc:	aa0903e0 	mov	x0, x9
    3200:	91002129 	add	x9, x9, #0x8
    3204:	f9400000 	ldr	x0, [x0]
    3208:	f9000100 	str	x0, [x8]
    320c:	17ffffc8 	b	312c <wasm_runtime_call_wasm_v+0x18c>
    3210:	11004045 	add	w5, w2, #0x10
    3214:	710000bf 	cmp	w5, #0x0
    3218:	5400040d 	b.le	3298 <wasm_runtime_call_wasm_v+0x2f8>
    321c:	2a0503e2 	mov	w2, w5
    3220:	aa0903e0 	mov	x0, x9
    3224:	52800025 	mov	w5, #0x1                   	// #1
    3228:	91002129 	add	x9, x9, #0x8
    322c:	17ffffce 	b	3164 <wasm_runtime_call_wasm_v+0x1c4>
    3230:	11002023 	add	w3, w1, #0x8
    3234:	7100007f 	cmp	w3, #0x0
    3238:	5400048d 	b.le	32c8 <wasm_runtime_call_wasm_v+0x328>
    323c:	2a0303e1 	mov	w1, w3
    3240:	aa0903e0 	mov	x0, x9
    3244:	52800023 	mov	w3, #0x1                   	// #1
    3248:	91002129 	add	x9, x9, #0x8
    324c:	17ffffe7 	b	31e8 <wasm_runtime_call_wasm_v+0x248>
    3250:	11004045 	add	w5, w2, #0x10
    3254:	710000bf 	cmp	w5, #0x0
    3258:	5400030d 	b.le	32b8 <wasm_runtime_call_wasm_v+0x318>
    325c:	2a0503e2 	mov	w2, w5
    3260:	aa0903e0 	mov	x0, x9
    3264:	52800025 	mov	w5, #0x1                   	// #1
    3268:	91002129 	add	x9, x9, #0x8
    326c:	17ffffad 	b	3120 <wasm_runtime_call_wasm_v+0x180>
    3270:	11002023 	add	w3, w1, #0x8
    3274:	7100007f 	cmp	w3, #0x0
    3278:	5400018d 	b.le	32a8 <wasm_runtime_call_wasm_v+0x308>
    327c:	2a0303e1 	mov	w1, w3
    3280:	aa0903e0 	mov	x0, x9
    3284:	52800023 	mov	w3, #0x1                   	// #1
    3288:	91002129 	add	x9, x9, #0x8
    328c:	17ffffde 	b	3204 <wasm_runtime_call_wasm_v+0x264>
    3290:	f9400a73 	ldr	x19, [x19, #16]
    3294:	17ffff67 	b	3030 <wasm_runtime_call_wasm_v+0x90>
    3298:	8b22c140 	add	x0, x10, w2, sxtw
    329c:	2a0503e2 	mov	w2, w5
    32a0:	52800025 	mov	w5, #0x1                   	// #1
    32a4:	17ffffb0 	b	3164 <wasm_runtime_call_wasm_v+0x1c4>
    32a8:	8b21c1c0 	add	x0, x14, w1, sxtw
    32ac:	2a0303e1 	mov	w1, w3
    32b0:	52800023 	mov	w3, #0x1                   	// #1
    32b4:	17ffffd4 	b	3204 <wasm_runtime_call_wasm_v+0x264>
    32b8:	8b22c140 	add	x0, x10, w2, sxtw
    32bc:	2a0503e2 	mov	w2, w5
    32c0:	52800025 	mov	w5, #0x1                   	// #1
    32c4:	17ffff97 	b	3120 <wasm_runtime_call_wasm_v+0x180>
    32c8:	8b21c1c0 	add	x0, x14, w1, sxtw
    32cc:	2a0303e1 	mov	w1, w3
    32d0:	52800023 	mov	w3, #0x1                   	// #1
    32d4:	17ffffc5 	b	31e8 <wasm_runtime_call_wasm_v+0x248>
    32d8:	f9400b00 	ldr	x0, [x24, #16]
    32dc:	900001a1 	adrp	x1, 37000 <signals.7908+0xf0>
    32e0:	52800013 	mov	w19, #0x0                   	// #0
    32e4:	913c8021 	add	x1, x1, #0xf20
    32e8:	97fffe26 	bl	2b80 <wasm_runtime_set_exception>
    32ec:	a9446bf9 	ldp	x25, x26, [sp, #64]
    32f0:	17ffff5b 	b	305c <wasm_runtime_call_wasm_v+0xbc>
    32f4:	00000000 	.inst	0x00000000 ; undefined

00000000000032f8 <wasm_runtime_get_exception>:
wasm_runtime_get_exception():
    32f8:	b9400001 	ldr	w1, [x0]
    32fc:	340000a1 	cbz	w1, 3310 <wasm_runtime_get_exception+0x18>
    3300:	7100043f 	cmp	w1, #0x1
    3304:	54000080 	b.eq	3314 <wasm_runtime_get_exception+0x1c>  // b.none
    3308:	d2800000 	mov	x0, #0x0                   	// #0
    330c:	d65f03c0 	ret
    3310:	14000e98 	b	6d70 <wasm_get_exception>
    3314:	14002665 	b	cca8 <aot_get_exception>

0000000000003318 <wasm_runtime_clear_exception>:
wasm_runtime_clear_exception():
    3318:	d2800001 	mov	x1, #0x0                   	// #0
    331c:	17fffe19 	b	2b80 <wasm_runtime_set_exception>

0000000000003320 <wasm_runtime_set_custom_data_internal>:
wasm_runtime_set_custom_data_internal():
    3320:	b9400002 	ldr	w2, [x0]
    3324:	34000082 	cbz	w2, 3334 <wasm_runtime_set_custom_data_internal+0x14>
    3328:	7100045f 	cmp	w2, #0x1
    332c:	54000080 	b.eq	333c <wasm_runtime_set_custom_data_internal+0x1c>  // b.none
    3330:	d65f03c0 	ret
    3334:	f9009001 	str	x1, [x0, #288]
    3338:	d65f03c0 	ret
    333c:	f9007401 	str	x1, [x0, #232]
    3340:	d65f03c0 	ret
    3344:	00000000 	.inst	0x00000000 ; undefined

0000000000003348 <wasm_runtime_set_custom_data>:
wasm_runtime_set_custom_data():
    3348:	b9400002 	ldr	w2, [x0]
    334c:	34000082 	cbz	w2, 335c <wasm_runtime_set_custom_data+0x14>
    3350:	7100045f 	cmp	w2, #0x1
    3354:	54000080 	b.eq	3364 <wasm_runtime_set_custom_data+0x1c>  // b.none
    3358:	d65f03c0 	ret
    335c:	f9009001 	str	x1, [x0, #288]
    3360:	d65f03c0 	ret
    3364:	f9007401 	str	x1, [x0, #232]
    3368:	d65f03c0 	ret
    336c:	00000000 	.inst	0x00000000 ; undefined

0000000000003370 <wasm_runtime_get_custom_data>:
wasm_runtime_get_custom_data():
    3370:	aa0003e1 	mov	x1, x0
    3374:	b9400000 	ldr	w0, [x0]
    3378:	340000e0 	cbz	w0, 3394 <wasm_runtime_get_custom_data+0x24>
    337c:	7100041f 	cmp	w0, #0x1
    3380:	d2800000 	mov	x0, #0x0                   	// #0
    3384:	54000040 	b.eq	338c <wasm_runtime_get_custom_data+0x1c>  // b.none
    3388:	d65f03c0 	ret
    338c:	f9407420 	ldr	x0, [x1, #232]
    3390:	d65f03c0 	ret
    3394:	f9409020 	ldr	x0, [x1, #288]
    3398:	d65f03c0 	ret
    339c:	00000000 	.inst	0x00000000 ; undefined

00000000000033a0 <wasm_runtime_module_malloc>:
wasm_runtime_module_malloc():
    33a0:	b9400003 	ldr	w3, [x0]
    33a4:	340000a3 	cbz	w3, 33b8 <wasm_runtime_module_malloc+0x18>
    33a8:	7100047f 	cmp	w3, #0x1
    33ac:	54000080 	b.eq	33bc <wasm_runtime_module_malloc+0x1c>  // b.none
    33b0:	52800000 	mov	w0, #0x0                   	// #0
    33b4:	d65f03c0 	ret
    33b8:	14000e72 	b	6d80 <wasm_module_malloc>
    33bc:	14002673 	b	cd88 <aot_module_malloc>

00000000000033c0 <wasm_runtime_module_realloc>:
wasm_runtime_module_realloc():
    33c0:	b9400004 	ldr	w4, [x0]
    33c4:	340000a4 	cbz	w4, 33d8 <wasm_runtime_module_realloc+0x18>
    33c8:	7100049f 	cmp	w4, #0x1
    33cc:	54000080 	b.eq	33dc <wasm_runtime_module_realloc+0x1c>  // b.none
    33d0:	52800000 	mov	w0, #0x0                   	// #0
    33d4:	d65f03c0 	ret
    33d8:	14000ed4 	b	6f28 <wasm_module_realloc>
    33dc:	14002735 	b	d0b0 <aot_module_realloc>

00000000000033e0 <wasm_runtime_module_free>:
wasm_runtime_module_free():
    33e0:	b9400002 	ldr	w2, [x0]
    33e4:	34000082 	cbz	w2, 33f4 <wasm_runtime_module_free+0x14>
    33e8:	7100045f 	cmp	w2, #0x1
    33ec:	54000060 	b.eq	33f8 <wasm_runtime_module_free+0x18>  // b.none
    33f0:	d65f03c0 	ret
    33f4:	14000f07 	b	7010 <wasm_module_free>
    33f8:	14002768 	b	d198 <aot_module_free>
    33fc:	00000000 	.inst	0x00000000 ; undefined

0000000000003400 <wasm_runtime_module_dup_data>:
wasm_runtime_module_dup_data():
    3400:	b9400003 	ldr	w3, [x0]
    3404:	340000a3 	cbz	w3, 3418 <wasm_runtime_module_dup_data+0x18>
    3408:	7100047f 	cmp	w3, #0x1
    340c:	54000080 	b.eq	341c <wasm_runtime_module_dup_data+0x1c>  // b.none
    3410:	52800000 	mov	w0, #0x0                   	// #0
    3414:	d65f03c0 	ret
    3418:	14000f24 	b	70a8 <wasm_module_dup_data>
    341c:	140027cb 	b	d348 <aot_module_dup_data>

0000000000003420 <wasm_runtime_validate_app_addr>:
wasm_runtime_validate_app_addr():
    3420:	b9400003 	ldr	w3, [x0]
    3424:	340000a3 	cbz	w3, 3438 <wasm_runtime_validate_app_addr+0x18>
    3428:	7100047f 	cmp	w3, #0x1
    342c:	54000080 	b.eq	343c <wasm_runtime_validate_app_addr+0x1c>  // b.none
    3430:	52800000 	mov	w0, #0x0                   	// #0
    3434:	d65f03c0 	ret
    3438:	14000f9c 	b	72a8 <wasm_validate_app_addr>
    343c:	140027ef 	b	d3f8 <aot_validate_app_addr>

0000000000003440 <wasm_runtime_validate_native_addr>:
wasm_runtime_validate_native_addr():
    3440:	b9400003 	ldr	w3, [x0]
    3444:	340000a3 	cbz	w3, 3458 <wasm_runtime_validate_native_addr+0x18>
    3448:	7100047f 	cmp	w3, #0x1
    344c:	54000080 	b.eq	345c <wasm_runtime_validate_native_addr+0x1c>  // b.none
    3450:	52800000 	mov	w0, #0x0                   	// #0
    3454:	d65f03c0 	ret
    3458:	14000fae 	b	7310 <wasm_validate_native_addr>
    345c:	140027ff 	b	d458 <aot_validate_native_addr>

0000000000003460 <wasm_runtime_addr_app_to_native>:
wasm_runtime_addr_app_to_native():
    3460:	b9400002 	ldr	w2, [x0]
    3464:	340000a2 	cbz	w2, 3478 <wasm_runtime_addr_app_to_native+0x18>
    3468:	7100045f 	cmp	w2, #0x1
    346c:	54000080 	b.eq	347c <wasm_runtime_addr_app_to_native+0x1c>  // b.none
    3470:	d2800000 	mov	x0, #0x0                   	// #0
    3474:	d65f03c0 	ret
    3478:	14000fbe 	b	7370 <wasm_addr_app_to_native>
    347c:	14002811 	b	d4c0 <aot_addr_app_to_native>

0000000000003480 <wasm_runtime_addr_native_to_app>:
wasm_runtime_addr_native_to_app():
    3480:	b9400002 	ldr	w2, [x0]
    3484:	340000a2 	cbz	w2, 3498 <wasm_runtime_addr_native_to_app+0x18>
    3488:	7100045f 	cmp	w2, #0x1
    348c:	54000080 	b.eq	349c <wasm_runtime_addr_native_to_app+0x1c>  // b.none
    3490:	52800000 	mov	w0, #0x0                   	// #0
    3494:	d65f03c0 	ret
    3498:	14000fc2 	b	73a0 <wasm_addr_native_to_app>
    349c:	14002817 	b	d4f8 <aot_addr_native_to_app>

